
/home/obviousfancy/Documents/obviousfancy/RPPicoProjects/button/build/button.elf:     file format elf32-littlearm

Sections:
Idx Name          Size      VMA       LMA       File off  Algn
  0 .boot2        00000100  10000000  10000000  00001000  2**0
                  CONTENTS, ALLOC, LOAD, READONLY, CODE
  1 .text         000016c4  10000100  10000100  00001100  2**3
                  CONTENTS, ALLOC, LOAD, READONLY, CODE
  2 .rodata       000000d8  100017c4  100017c4  000027c4  2**2
                  CONTENTS, ALLOC, LOAD, READONLY, DATA
  3 .binary_info  0000001c  1000189c  1000189c  0000289c  2**2
                  CONTENTS, ALLOC, LOAD, READONLY, DATA
  4 .ram_vector_table 000000c0  20000000  20000000  00004000  2**2
                  ALLOC
  5 .uninitialized_data 00000000  200000c0  200000c0  000031e8  2**0
                  CONTENTS
  6 .data         00000128  200000c0  100018b8  000030c0  2**4
                  CONTENTS, ALLOC, LOAD, READONLY, CODE
  7 .tdata        00000000  200001e8  200001e8  000031e8  2**0
                  CONTENTS, ALLOC, LOAD, DATA, THREAD_LOCAL
  8 .tbss         00000000  200001e8  200001e8  00000000  2**0
                  ALLOC, THREAD_LOCAL
  9 .bss          00000580  200001e8  100019e0  000031e8  2**3
                  ALLOC
 10 .heap         00000800  20000768  100019e0  00003768  2**2
                  ALLOC, READONLY
 11 .scratch_x    00000000  20040000  20040000  000031e8  2**0
                  CONTENTS
 12 .scratch_y    00000000  20041000  20041000  000031e8  2**0
                  CONTENTS
 13 .stack_dummy  00000800  20041000  20041000  00004000  2**5
                  ALLOC, READONLY
 14 .ARM.attributes 00000028  00000000  00000000  000031e8  2**0
                  CONTENTS, READONLY
 15 .comment      00000026  00000000  00000000  00003210  2**0
                  CONTENTS, READONLY
 16 .debug_info   0001a8e6  00000000  00000000  00003236  2**0
                  CONTENTS, READONLY, DEBUGGING, OCTETS
 17 .debug_abbrev 00004f70  00000000  00000000  0001db1c  2**0
                  CONTENTS, READONLY, DEBUGGING, OCTETS
 18 .debug_loclists 0000ff5c  00000000  00000000  00022a8c  2**0
                  CONTENTS, READONLY, DEBUGGING, OCTETS
 19 .debug_aranges 00000f10  00000000  00000000  000329e8  2**3
                  CONTENTS, READONLY, DEBUGGING, OCTETS
 20 .debug_rnglists 00002aa4  00000000  00000000  000338f8  2**0
                  CONTENTS, READONLY, DEBUGGING, OCTETS
 21 .debug_line   00015dfd  00000000  00000000  0003639c  2**0
                  CONTENTS, READONLY, DEBUGGING, OCTETS
 22 .debug_str    00004953  00000000  00000000  0004c199  2**0
                  CONTENTS, READONLY, DEBUGGING, OCTETS
 23 .debug_frame  00001a78  00000000  00000000  00050aec  2**2
                  CONTENTS, READONLY, DEBUGGING, OCTETS
 24 .debug_line_str 0000034d  00000000  00000000  00052564  2**0
                  CONTENTS, READONLY, DEBUGGING, OCTETS

/home/obviousfancy/Documents/obviousfancy/RPPicoProjects/button/build/button.elf:     file format elf32-littlearm


Disassembly of section .boot2:

10000000 <__boot2_start__>:
10000000:	4b32b500 	.word	0x4b32b500
10000004:	60582021 	.word	0x60582021
10000008:	21026898 	.word	0x21026898
1000000c:	60984388 	.word	0x60984388
10000010:	611860d8 	.word	0x611860d8
10000014:	4b2e6158 	.word	0x4b2e6158
10000018:	60992100 	.word	0x60992100
1000001c:	61592102 	.word	0x61592102
10000020:	22f02101 	.word	0x22f02101
10000024:	492b5099 	.word	0x492b5099
10000028:	21016019 	.word	0x21016019
1000002c:	20356099 	.word	0x20356099
10000030:	f844f000 	.word	0xf844f000
10000034:	42902202 	.word	0x42902202
10000038:	2106d014 	.word	0x2106d014
1000003c:	f0006619 	.word	0xf0006619
10000040:	6e19f834 	.word	0x6e19f834
10000044:	66192101 	.word	0x66192101
10000048:	66182000 	.word	0x66182000
1000004c:	f000661a 	.word	0xf000661a
10000050:	6e19f82c 	.word	0x6e19f82c
10000054:	6e196e19 	.word	0x6e196e19
10000058:	f0002005 	.word	0xf0002005
1000005c:	2101f82f 	.word	0x2101f82f
10000060:	d1f94208 	.word	0xd1f94208
10000064:	60992100 	.word	0x60992100
10000068:	6019491b 	.word	0x6019491b
1000006c:	60592100 	.word	0x60592100
10000070:	481b491a 	.word	0x481b491a
10000074:	21016001 	.word	0x21016001
10000078:	21eb6099 	.word	0x21eb6099
1000007c:	21a06619 	.word	0x21a06619
10000080:	f0006619 	.word	0xf0006619
10000084:	2100f812 	.word	0x2100f812
10000088:	49166099 	.word	0x49166099
1000008c:	60014814 	.word	0x60014814
10000090:	60992101 	.word	0x60992101
10000094:	2800bc01 	.word	0x2800bc01
10000098:	4700d000 	.word	0x4700d000
1000009c:	49134812 	.word	0x49134812
100000a0:	c8036008 	.word	0xc8036008
100000a4:	8808f380 	.word	0x8808f380
100000a8:	b5034708 	.word	0xb5034708
100000ac:	20046a99 	.word	0x20046a99
100000b0:	d0fb4201 	.word	0xd0fb4201
100000b4:	42012001 	.word	0x42012001
100000b8:	bd03d1f8 	.word	0xbd03d1f8
100000bc:	6618b502 	.word	0x6618b502
100000c0:	f7ff6618 	.word	0xf7ff6618
100000c4:	6e18fff2 	.word	0x6e18fff2
100000c8:	bd026e18 	.word	0xbd026e18
100000cc:	40020000 	.word	0x40020000
100000d0:	18000000 	.word	0x18000000
100000d4:	00070000 	.word	0x00070000
100000d8:	005f0300 	.word	0x005f0300
100000dc:	00002221 	.word	0x00002221
100000e0:	180000f4 	.word	0x180000f4
100000e4:	a0002022 	.word	0xa0002022
100000e8:	10000100 	.word	0x10000100
100000ec:	e000ed08 	.word	0xe000ed08
	...
100000fc:	7a4eb274 	.word	0x7a4eb274

Disassembly of section .text:

10000100 <__VECTOR_TABLE>:
10000100:	20042000 	.word	0x20042000
10000104:	100001f7 	.word	0x100001f7
10000108:	100001cb 	.word	0x100001cb
1000010c:	100001cd 	.word	0x100001cd
10000110:	100001c9 	.word	0x100001c9
10000114:	100001c9 	.word	0x100001c9
10000118:	100001c9 	.word	0x100001c9
1000011c:	100001c9 	.word	0x100001c9
10000120:	100001c9 	.word	0x100001c9
10000124:	100001c9 	.word	0x100001c9
10000128:	100001c9 	.word	0x100001c9
1000012c:	100001cf 	.word	0x100001cf
10000130:	100001c9 	.word	0x100001c9
10000134:	100001c9 	.word	0x100001c9
10000138:	100001d1 	.word	0x100001d1
1000013c:	100001d3 	.word	0x100001d3
10000140:	100001c1 	.word	0x100001c1
10000144:	100001c1 	.word	0x100001c1
10000148:	100001c1 	.word	0x100001c1
1000014c:	100001c1 	.word	0x100001c1
10000150:	100001c1 	.word	0x100001c1
10000154:	100001c1 	.word	0x100001c1
10000158:	100001c1 	.word	0x100001c1
1000015c:	100001c1 	.word	0x100001c1
10000160:	100001c1 	.word	0x100001c1
10000164:	100001c1 	.word	0x100001c1
10000168:	100001c1 	.word	0x100001c1
1000016c:	100001c1 	.word	0x100001c1
10000170:	100001c1 	.word	0x100001c1
10000174:	100001c1 	.word	0x100001c1
10000178:	100001c1 	.word	0x100001c1
1000017c:	100001c1 	.word	0x100001c1
10000180:	100001c1 	.word	0x100001c1
10000184:	100001c1 	.word	0x100001c1
10000188:	100001c1 	.word	0x100001c1
1000018c:	100001c1 	.word	0x100001c1
10000190:	100001c1 	.word	0x100001c1
10000194:	100001c1 	.word	0x100001c1
10000198:	100001c1 	.word	0x100001c1
1000019c:	100001c1 	.word	0x100001c1
100001a0:	100001c1 	.word	0x100001c1
100001a4:	100001c1 	.word	0x100001c1
100001a8:	100001c1 	.word	0x100001c1
100001ac:	100001c1 	.word	0x100001c1
100001b0:	100001c1 	.word	0x100001c1
100001b4:	100001c1 	.word	0x100001c1
100001b8:	100001c1 	.word	0x100001c1
100001bc:	100001c1 	.word	0x100001c1

100001c0 <__unhandled_user_irq>:
100001c0:	f3ef 8005 	mrs	r0, IPSR
100001c4:	3810      	subs	r0, #16

100001c6 <unhandled_user_irq_num_in_r0>:
100001c6:	be00      	bkpt	0x0000

100001c8 <isr_invalid>:
100001c8:	be00      	bkpt	0x0000

100001ca <isr_nmi>:
100001ca:	be00      	bkpt	0x0000

100001cc <isr_hardfault>:
100001cc:	be00      	bkpt	0x0000

100001ce <isr_svcall>:
100001ce:	be00      	bkpt	0x0000

100001d0 <isr_pendsv>:
100001d0:	be00      	bkpt	0x0000

100001d2 <isr_systick>:
100001d2:	be00      	bkpt	0x0000

100001d4 <__default_isrs_end>:
100001d4:	7188ebf2 	.word	0x7188ebf2
100001d8:	1000189c 	.word	0x1000189c
100001dc:	100018b8 	.word	0x100018b8
100001e0:	10000238 	.word	0x10000238
100001e4:	e71aa390 	.word	0xe71aa390

100001e8 <_entry_point>:
100001e8:	481e      	ldr	r0, [pc, #120]	@ (10000264 <data_cpy_table+0x2c>)

100001ea <_enter_vtable_in_r0>:
100001ea:	491f      	ldr	r1, [pc, #124]	@ (10000268 <data_cpy_table+0x30>)
100001ec:	6008      	str	r0, [r1, #0]
100001ee:	c806      	ldmia	r0!, {r1, r2}
100001f0:	f381 8808 	msr	MSP, r1
100001f4:	4710      	bx	r2

100001f6 <_reset_handler>:
100001f6:	481d      	ldr	r0, [pc, #116]	@ (1000026c <data_cpy_table+0x34>)
100001f8:	6800      	ldr	r0, [r0, #0]
100001fa:	2800      	cmp	r0, #0
100001fc:	d001      	beq.n	10000202 <hold_non_core0_in_bootrom+0x4>

100001fe <hold_non_core0_in_bootrom>:
100001fe:	4819      	ldr	r0, [pc, #100]	@ (10000264 <data_cpy_table+0x2c>)
10000200:	e7f3      	b.n	100001ea <_enter_vtable_in_r0>
10000202:	a40d      	add	r4, pc, #52	@ (adr r4, 10000238 <data_cpy_table>)
10000204:	cc0e      	ldmia	r4!, {r1, r2, r3}
10000206:	2900      	cmp	r1, #0
10000208:	d002      	beq.n	10000210 <hold_non_core0_in_bootrom+0x12>
1000020a:	f000 f812 	bl	10000232 <data_cpy>
1000020e:	e7f9      	b.n	10000204 <hold_non_core0_in_bootrom+0x6>
10000210:	4917      	ldr	r1, [pc, #92]	@ (10000270 <data_cpy_table+0x38>)
10000212:	4a18      	ldr	r2, [pc, #96]	@ (10000274 <data_cpy_table+0x3c>)
10000214:	2000      	movs	r0, #0
10000216:	e000      	b.n	1000021a <bss_fill_test>

10000218 <bss_fill_loop>:
10000218:	c101      	stmia	r1!, {r0}

1000021a <bss_fill_test>:
1000021a:	4291      	cmp	r1, r2
1000021c:	d1fc      	bne.n	10000218 <bss_fill_loop>

1000021e <platform_entry>:
1000021e:	4916      	ldr	r1, [pc, #88]	@ (10000278 <data_cpy_table+0x40>)
10000220:	4788      	blx	r1
10000222:	4916      	ldr	r1, [pc, #88]	@ (1000027c <data_cpy_table+0x44>)
10000224:	4788      	blx	r1
10000226:	4916      	ldr	r1, [pc, #88]	@ (10000280 <data_cpy_table+0x48>)
10000228:	4788      	blx	r1
1000022a:	be00      	bkpt	0x0000
1000022c:	e7fd      	b.n	1000022a <platform_entry+0xc>

1000022e <data_cpy_loop>:
1000022e:	c901      	ldmia	r1!, {r0}
10000230:	c201      	stmia	r2!, {r0}

10000232 <data_cpy>:
10000232:	429a      	cmp	r2, r3
10000234:	d3fb      	bcc.n	1000022e <data_cpy_loop>
10000236:	4770      	bx	lr

10000238 <data_cpy_table>:
10000238:	100018b8 	.word	0x100018b8
1000023c:	200000c0 	.word	0x200000c0
10000240:	200001e8 	.word	0x200001e8
10000244:	100019e0 	.word	0x100019e0
10000248:	20040000 	.word	0x20040000
1000024c:	20040000 	.word	0x20040000
10000250:	100019e0 	.word	0x100019e0
10000254:	20041000 	.word	0x20041000
10000258:	20041000 	.word	0x20041000
1000025c:	00000000 	.word	0x00000000
10000260:	4770      	bx	lr
10000262:	0000      	.short	0x0000
10000264:	00000000 	.word	0x00000000
10000268:	e000ed08 	.word	0xe000ed08
1000026c:	d0000000 	.word	0xd0000000
10000270:	200001e8 	.word	0x200001e8
10000274:	20000768 	.word	0x20000768
10000278:	10001371 	.word	0x10001371
1000027c:	10000321 	.word	0x10000321
10000280:	10001369 	.word	0x10001369

10000284 <_init>:
10000284:	b5f8      	push	{r3, r4, r5, r6, r7, lr}
10000286:	46c0      	nop			@ (mov r8, r8)

10000288 <deregister_tm_clones>:
10000288:	4804      	ldr	r0, [pc, #16]	@ (1000029c <deregister_tm_clones+0x14>)
1000028a:	4b05      	ldr	r3, [pc, #20]	@ (100002a0 <deregister_tm_clones+0x18>)
1000028c:	b510      	push	{r4, lr}
1000028e:	4283      	cmp	r3, r0
10000290:	d003      	beq.n	1000029a <deregister_tm_clones+0x12>
10000292:	4b04      	ldr	r3, [pc, #16]	@ (100002a4 <deregister_tm_clones+0x1c>)
10000294:	2b00      	cmp	r3, #0
10000296:	d000      	beq.n	1000029a <deregister_tm_clones+0x12>
10000298:	4798      	blx	r3
1000029a:	bd10      	pop	{r4, pc}
1000029c:	200001e8 	.word	0x200001e8
100002a0:	200001e8 	.word	0x200001e8
100002a4:	00000000 	.word	0x00000000

100002a8 <register_tm_clones>:
100002a8:	4806      	ldr	r0, [pc, #24]	@ (100002c4 <register_tm_clones+0x1c>)
100002aa:	4907      	ldr	r1, [pc, #28]	@ (100002c8 <register_tm_clones+0x20>)
100002ac:	1a09      	subs	r1, r1, r0
100002ae:	108b      	asrs	r3, r1, #2
100002b0:	0fc9      	lsrs	r1, r1, #31
100002b2:	18c9      	adds	r1, r1, r3
100002b4:	b510      	push	{r4, lr}
100002b6:	1049      	asrs	r1, r1, #1
100002b8:	d003      	beq.n	100002c2 <register_tm_clones+0x1a>
100002ba:	4b04      	ldr	r3, [pc, #16]	@ (100002cc <register_tm_clones+0x24>)
100002bc:	2b00      	cmp	r3, #0
100002be:	d000      	beq.n	100002c2 <register_tm_clones+0x1a>
100002c0:	4798      	blx	r3
100002c2:	bd10      	pop	{r4, pc}
100002c4:	200001e8 	.word	0x200001e8
100002c8:	200001e8 	.word	0x200001e8
100002cc:	00000000 	.word	0x00000000

100002d0 <__do_global_dtors_aux>:
100002d0:	b510      	push	{r4, lr}
100002d2:	4c07      	ldr	r4, [pc, #28]	@ (100002f0 <__do_global_dtors_aux+0x20>)
100002d4:	7823      	ldrb	r3, [r4, #0]
100002d6:	2b00      	cmp	r3, #0
100002d8:	d109      	bne.n	100002ee <__do_global_dtors_aux+0x1e>
100002da:	f7ff ffd5 	bl	10000288 <deregister_tm_clones>
100002de:	4b05      	ldr	r3, [pc, #20]	@ (100002f4 <__do_global_dtors_aux+0x24>)
100002e0:	2b00      	cmp	r3, #0
100002e2:	d002      	beq.n	100002ea <__do_global_dtors_aux+0x1a>
100002e4:	4804      	ldr	r0, [pc, #16]	@ (100002f8 <__do_global_dtors_aux+0x28>)
100002e6:	e000      	b.n	100002ea <__do_global_dtors_aux+0x1a>
100002e8:	bf00      	nop
100002ea:	2301      	movs	r3, #1
100002ec:	7023      	strb	r3, [r4, #0]
100002ee:	bd10      	pop	{r4, pc}
100002f0:	20000568 	.word	0x20000568
100002f4:	00000000 	.word	0x00000000
100002f8:	100017c4 	.word	0x100017c4

100002fc <frame_dummy>:
100002fc:	4b05      	ldr	r3, [pc, #20]	@ (10000314 <frame_dummy+0x18>)
100002fe:	b510      	push	{r4, lr}
10000300:	2b00      	cmp	r3, #0
10000302:	d003      	beq.n	1000030c <frame_dummy+0x10>
10000304:	4904      	ldr	r1, [pc, #16]	@ (10000318 <frame_dummy+0x1c>)
10000306:	4805      	ldr	r0, [pc, #20]	@ (1000031c <frame_dummy+0x20>)
10000308:	e000      	b.n	1000030c <frame_dummy+0x10>
1000030a:	bf00      	nop
1000030c:	f7ff ffcc 	bl	100002a8 <register_tm_clones>
10000310:	bd10      	pop	{r4, pc}
10000312:	46c0      	nop			@ (mov r8, r8)
10000314:	00000000 	.word	0x00000000
10000318:	2000056c 	.word	0x2000056c
1000031c:	100017c4 	.word	0x100017c4

10000320 <main>:
10000320:	b570      	push	{r4, r5, r6, lr}
10000322:	24d0      	movs	r4, #208	@ 0xd0
10000324:	2680      	movs	r6, #128	@ 0x80
10000326:	2580      	movs	r5, #128	@ 0x80
10000328:	2019      	movs	r0, #25
1000032a:	0624      	lsls	r4, r4, #24
1000032c:	04b6      	lsls	r6, r6, #18
1000032e:	f000 f829 	bl	10000384 <gpio_init>
10000332:	046d      	lsls	r5, r5, #17
10000334:	2018      	movs	r0, #24
10000336:	6266      	str	r6, [r4, #36]	@ 0x24
10000338:	f000 f824 	bl	10000384 <gpio_init>
1000033c:	2200      	movs	r2, #0
1000033e:	2101      	movs	r1, #1
10000340:	2018      	movs	r0, #24
10000342:	62a5      	str	r5, [r4, #40]	@ 0x28
10000344:	f000 f80a 	bl	1000035c <gpio_set_pulls>
10000348:	6863      	ldr	r3, [r4, #4]
1000034a:	422b      	tst	r3, r5
1000034c:	d003      	beq.n	10000356 <main+0x36>
1000034e:	61a6      	str	r6, [r4, #24]
10000350:	6863      	ldr	r3, [r4, #4]
10000352:	422b      	tst	r3, r5
10000354:	d1fb      	bne.n	1000034e <main+0x2e>
10000356:	6166      	str	r6, [r4, #20]
10000358:	e7f6      	b.n	10000348 <main+0x28>
1000035a:	46c0      	nop			@ (mov r8, r8)

1000035c <gpio_set_pulls>:
1000035c:	4b07      	ldr	r3, [pc, #28]	@ (1000037c <gpio_set_pulls+0x20>)
1000035e:	0080      	lsls	r0, r0, #2
10000360:	18c3      	adds	r3, r0, r3
10000362:	681b      	ldr	r3, [r3, #0]
10000364:	00c9      	lsls	r1, r1, #3
10000366:	0092      	lsls	r2, r2, #2
10000368:	430a      	orrs	r2, r1
1000036a:	405a      	eors	r2, r3
1000036c:	230c      	movs	r3, #12
1000036e:	4013      	ands	r3, r2
10000370:	4a03      	ldr	r2, [pc, #12]	@ (10000380 <gpio_set_pulls+0x24>)
10000372:	4694      	mov	ip, r2
10000374:	4460      	add	r0, ip
10000376:	6003      	str	r3, [r0, #0]
10000378:	4770      	bx	lr
1000037a:	46c0      	nop			@ (mov r8, r8)
1000037c:	4001c004 	.word	0x4001c004
10000380:	4001d004 	.word	0x4001d004

10000384 <gpio_init>:
10000384:	2301      	movs	r3, #1
10000386:	22d0      	movs	r2, #208	@ 0xd0
10000388:	4083      	lsls	r3, r0
1000038a:	0612      	lsls	r2, r2, #24
1000038c:	6293      	str	r3, [r2, #40]	@ 0x28
1000038e:	6193      	str	r3, [r2, #24]
10000390:	4a09      	ldr	r2, [pc, #36]	@ (100003b8 <gpio_init+0x34>)
10000392:	0083      	lsls	r3, r0, #2
10000394:	189a      	adds	r2, r3, r2
10000396:	6811      	ldr	r1, [r2, #0]
10000398:	2240      	movs	r2, #64	@ 0x40
1000039a:	4051      	eors	r1, r2
1000039c:	3280      	adds	r2, #128	@ 0x80
1000039e:	400a      	ands	r2, r1
100003a0:	4906      	ldr	r1, [pc, #24]	@ (100003bc <gpio_init+0x38>)
100003a2:	00c0      	lsls	r0, r0, #3
100003a4:	468c      	mov	ip, r1
100003a6:	4463      	add	r3, ip
100003a8:	601a      	str	r2, [r3, #0]
100003aa:	4b05      	ldr	r3, [pc, #20]	@ (100003c0 <gpio_init+0x3c>)
100003ac:	469c      	mov	ip, r3
100003ae:	2305      	movs	r3, #5
100003b0:	4460      	add	r0, ip
100003b2:	6043      	str	r3, [r0, #4]
100003b4:	4770      	bx	lr
100003b6:	46c0      	nop			@ (mov r8, r8)
100003b8:	4001c004 	.word	0x4001c004
100003bc:	4001d004 	.word	0x4001d004
100003c0:	40014000 	.word	0x40014000

100003c4 <panic>:
100003c4:	b40f      	push	{r0, r1, r2, r3}
100003c6:	b500      	push	{lr}
100003c8:	4808      	ldr	r0, [pc, #32]	@ (100003ec <panic+0x28>)
100003ca:	b083      	sub	sp, #12
100003cc:	f001 f90e 	bl	100015ec <__wrap_puts>
100003d0:	9b04      	ldr	r3, [sp, #16]
100003d2:	2b00      	cmp	r3, #0
100003d4:	d007      	beq.n	100003e6 <panic+0x22>
100003d6:	a905      	add	r1, sp, #20
100003d8:	0018      	movs	r0, r3
100003da:	9101      	str	r1, [sp, #4]
100003dc:	f000 ffaa 	bl	10001334 <weak_raw_vprintf>
100003e0:	4803      	ldr	r0, [pc, #12]	@ (100003f0 <panic+0x2c>)
100003e2:	f001 f903 	bl	100015ec <__wrap_puts>
100003e6:	2001      	movs	r0, #1
100003e8:	f000 ffbc 	bl	10001364 <_exit>
100003ec:	100017c4 	.word	0x100017c4
100003f0:	100017d4 	.word	0x100017d4

100003f4 <hw_claim_or_assert>:
100003f4:	b570      	push	{r4, r5, r6, lr}
100003f6:	f3ef 8c10 	mrs	ip, PRIMASK
100003fa:	b672      	cpsid	i
100003fc:	4d0d      	ldr	r5, [pc, #52]	@ (10000434 <hw_claim_or_assert+0x40>)
100003fe:	682b      	ldr	r3, [r5, #0]
10000400:	2b00      	cmp	r3, #0
10000402:	d0fc      	beq.n	100003fe <hw_claim_or_assert+0xa>
10000404:	f3bf 8f5f 	dmb	sy
10000408:	2407      	movs	r4, #7
1000040a:	08cb      	lsrs	r3, r1, #3
1000040c:	18c6      	adds	r6, r0, r3
1000040e:	5cc0      	ldrb	r0, [r0, r3]
10000410:	2301      	movs	r3, #1
10000412:	400c      	ands	r4, r1
10000414:	40a3      	lsls	r3, r4
10000416:	001c      	movs	r4, r3
10000418:	4004      	ands	r4, r0
1000041a:	4203      	tst	r3, r0
1000041c:	d107      	bne.n	1000042e <hw_claim_or_assert+0x3a>
1000041e:	4318      	orrs	r0, r3
10000420:	7030      	strb	r0, [r6, #0]
10000422:	f3bf 8f5f 	dmb	sy
10000426:	602c      	str	r4, [r5, #0]
10000428:	f38c 8810 	msr	PRIMASK, ip
1000042c:	bd70      	pop	{r4, r5, r6, pc}
1000042e:	0010      	movs	r0, r2
10000430:	f7ff ffc8 	bl	100003c4 <panic>
10000434:	d000012c 	.word	0xd000012c

10000438 <next_striped_spin_lock_num>:
10000438:	4a04      	ldr	r2, [pc, #16]	@ (1000044c <next_striped_spin_lock_num+0x14>)
1000043a:	7810      	ldrb	r0, [r2, #0]
1000043c:	1c43      	adds	r3, r0, #1
1000043e:	b2db      	uxtb	r3, r3
10000440:	2b17      	cmp	r3, #23
10000442:	d900      	bls.n	10000446 <next_striped_spin_lock_num+0xe>
10000444:	2310      	movs	r3, #16
10000446:	7013      	strb	r3, [r2, #0]
10000448:	4770      	bx	lr
1000044a:	46c0      	nop			@ (mov r8, r8)
1000044c:	20000198 	.word	0x20000198

10000450 <spin_locks_reset>:
10000450:	2100      	movs	r1, #0
10000452:	4b04      	ldr	r3, [pc, #16]	@ (10000464 <spin_locks_reset+0x14>)
10000454:	4a04      	ldr	r2, [pc, #16]	@ (10000468 <spin_locks_reset+0x18>)
10000456:	f3bf 8f5f 	dmb	sy
1000045a:	c302      	stmia	r3!, {r1}
1000045c:	4293      	cmp	r3, r2
1000045e:	d1fa      	bne.n	10000456 <spin_locks_reset+0x6>
10000460:	4770      	bx	lr
10000462:	46c0      	nop			@ (mov r8, r8)
10000464:	d0000100 	.word	0xd0000100
10000468:	d0000180 	.word	0xd0000180

1000046c <runtime_init_per_core_irq_priorities>:
1000046c:	4b05      	ldr	r3, [pc, #20]	@ (10000484 <runtime_init_per_core_irq_priorities+0x18>)
1000046e:	4a06      	ldr	r2, [pc, #24]	@ (10000488 <runtime_init_per_core_irq_priorities+0x1c>)
10000470:	6013      	str	r3, [r2, #0]
10000472:	4a06      	ldr	r2, [pc, #24]	@ (1000048c <runtime_init_per_core_irq_priorities+0x20>)
10000474:	6013      	str	r3, [r2, #0]
10000476:	6053      	str	r3, [r2, #4]
10000478:	6093      	str	r3, [r2, #8]
1000047a:	60d3      	str	r3, [r2, #12]
1000047c:	6113      	str	r3, [r2, #16]
1000047e:	6153      	str	r3, [r2, #20]
10000480:	6193      	str	r3, [r2, #24]
10000482:	4770      	bx	lr
10000484:	80808080 	.word	0x80808080
10000488:	e000e400 	.word	0xe000e400
1000048c:	e000e404 	.word	0xe000e404

10000490 <irq_set_enabled>:
10000490:	231f      	movs	r3, #31
10000492:	4018      	ands	r0, r3
10000494:	3b1e      	subs	r3, #30
10000496:	4083      	lsls	r3, r0
10000498:	2900      	cmp	r1, #0
1000049a:	d005      	beq.n	100004a8 <irq_set_enabled+0x18>
1000049c:	21c0      	movs	r1, #192	@ 0xc0
1000049e:	4a04      	ldr	r2, [pc, #16]	@ (100004b0 <irq_set_enabled+0x20>)
100004a0:	0049      	lsls	r1, r1, #1
100004a2:	5053      	str	r3, [r2, r1]
100004a4:	6013      	str	r3, [r2, #0]
100004a6:	4770      	bx	lr
100004a8:	2280      	movs	r2, #128	@ 0x80
100004aa:	4901      	ldr	r1, [pc, #4]	@ (100004b0 <irq_set_enabled+0x20>)
100004ac:	508b      	str	r3, [r1, r2]
100004ae:	e7fa      	b.n	100004a6 <irq_set_enabled+0x16>
100004b0:	e000e100 	.word	0xe000e100

100004b4 <irq_set_exclusive_handler>:
100004b4:	b570      	push	{r4, r5, r6, lr}
100004b6:	000d      	movs	r5, r1
100004b8:	f3ef 8610 	mrs	r6, PRIMASK
100004bc:	b672      	cpsid	i
100004be:	4a0f      	ldr	r2, [pc, #60]	@ (100004fc <irq_set_exclusive_handler+0x48>)
100004c0:	6813      	ldr	r3, [r2, #0]
100004c2:	2b00      	cmp	r3, #0
100004c4:	d0fc      	beq.n	100004c0 <irq_set_exclusive_handler+0xc>
100004c6:	f3bf 8f5f 	dmb	sy
100004ca:	4b0d      	ldr	r3, [pc, #52]	@ (10000500 <irq_set_exclusive_handler+0x4c>)
100004cc:	3010      	adds	r0, #16
100004ce:	689b      	ldr	r3, [r3, #8]
100004d0:	0084      	lsls	r4, r0, #2
100004d2:	591b      	ldr	r3, [r3, r4]
100004d4:	4a0b      	ldr	r2, [pc, #44]	@ (10000504 <irq_set_exclusive_handler+0x50>)
100004d6:	4293      	cmp	r3, r2
100004d8:	d003      	beq.n	100004e2 <irq_set_exclusive_handler+0x2e>
100004da:	429d      	cmp	r5, r3
100004dc:	d001      	beq.n	100004e2 <irq_set_exclusive_handler+0x2e>
100004de:	f000 fd13 	bl	10000f08 <hard_assertion_failure>
100004e2:	4b07      	ldr	r3, [pc, #28]	@ (10000500 <irq_set_exclusive_handler+0x4c>)
100004e4:	689b      	ldr	r3, [r3, #8]
100004e6:	511d      	str	r5, [r3, r4]
100004e8:	f3bf 8f5f 	dmb	sy
100004ec:	f3bf 8f5f 	dmb	sy
100004f0:	2200      	movs	r2, #0
100004f2:	4b02      	ldr	r3, [pc, #8]	@ (100004fc <irq_set_exclusive_handler+0x48>)
100004f4:	601a      	str	r2, [r3, #0]
100004f6:	f386 8810 	msr	PRIMASK, r6
100004fa:	bd70      	pop	{r4, r5, r6, pc}
100004fc:	d0000124 	.word	0xd0000124
10000500:	e000ed00 	.word	0xe000ed00
10000504:	100001c1 	.word	0x100001c1

10000508 <lock_init>:
10000508:	4b02      	ldr	r3, [pc, #8]	@ (10000514 <lock_init+0xc>)
1000050a:	469c      	mov	ip, r3
1000050c:	4461      	add	r1, ip
1000050e:	0089      	lsls	r1, r1, #2
10000510:	6001      	str	r1, [r0, #0]
10000512:	4770      	bx	lr
10000514:	34000040 	.word	0x34000040

10000518 <runtime_init_mutex>:
10000518:	b570      	push	{r4, r5, r6, lr}
1000051a:	4c11      	ldr	r4, [pc, #68]	@ (10000560 <runtime_init_mutex+0x48>)
1000051c:	4d11      	ldr	r5, [pc, #68]	@ (10000564 <runtime_init_mutex+0x4c>)
1000051e:	42ac      	cmp	r4, r5
10000520:	d20f      	bcs.n	10000542 <runtime_init_mutex+0x2a>
10000522:	26ff      	movs	r6, #255	@ 0xff
10000524:	6823      	ldr	r3, [r4, #0]
10000526:	2b00      	cmp	r3, #0
10000528:	d00c      	beq.n	10000544 <runtime_init_mutex+0x2c>
1000052a:	f7ff ff85 	bl	10000438 <next_striped_spin_lock_num>
1000052e:	0001      	movs	r1, r0
10000530:	0020      	movs	r0, r4
10000532:	f7ff ffe9 	bl	10000508 <lock_init>
10000536:	80a6      	strh	r6, [r4, #4]
10000538:	f3bf 8f5f 	dmb	sy
1000053c:	3408      	adds	r4, #8
1000053e:	42ac      	cmp	r4, r5
10000540:	d3f0      	bcc.n	10000524 <runtime_init_mutex+0xc>
10000542:	bd70      	pop	{r4, r5, r6, pc}
10000544:	f7ff ff78 	bl	10000438 <next_striped_spin_lock_num>
10000548:	0001      	movs	r1, r0
1000054a:	0020      	movs	r0, r4
1000054c:	f7ff ffdc 	bl	10000508 <lock_init>
10000550:	7126      	strb	r6, [r4, #4]
10000552:	f3bf 8f5f 	dmb	sy
10000556:	3408      	adds	r4, #8
10000558:	42ac      	cmp	r4, r5
1000055a:	d3e3      	bcc.n	10000524 <runtime_init_mutex+0xc>
1000055c:	e7f1      	b.n	10000542 <runtime_init_mutex+0x2a>
1000055e:	46c0      	nop			@ (mov r8, r8)
10000560:	200001e0 	.word	0x200001e0
10000564:	200001e8 	.word	0x200001e8

10000568 <sleep_until_callback>:
10000568:	4b0a      	ldr	r3, [pc, #40]	@ (10000594 <sleep_until_callback+0x2c>)
1000056a:	6819      	ldr	r1, [r3, #0]
1000056c:	f3ef 8010 	mrs	r0, PRIMASK
10000570:	b672      	cpsid	i
10000572:	680a      	ldr	r2, [r1, #0]
10000574:	2a00      	cmp	r2, #0
10000576:	d0fc      	beq.n	10000572 <sleep_until_callback+0xa>
10000578:	f3bf 8f5f 	dmb	sy
1000057c:	681b      	ldr	r3, [r3, #0]
1000057e:	f3bf 8f5f 	dmb	sy
10000582:	2200      	movs	r2, #0
10000584:	601a      	str	r2, [r3, #0]
10000586:	f380 8810 	msr	PRIMASK, r0
1000058a:	bf40      	sev
1000058c:	2000      	movs	r0, #0
1000058e:	2100      	movs	r1, #0
10000590:	4770      	bx	lr
10000592:	46c0      	nop			@ (mov r8, r8)
10000594:	20000764 	.word	0x20000764

10000598 <alarm_pool_irq_handler>:
10000598:	b5f0      	push	{r4, r5, r6, r7, lr}
1000059a:	46de      	mov	lr, fp
1000059c:	4657      	mov	r7, sl
1000059e:	464e      	mov	r6, r9
100005a0:	4645      	mov	r5, r8
100005a2:	b5e0      	push	{r5, r6, r7, lr}
100005a4:	b087      	sub	sp, #28
100005a6:	f3ef 8305 	mrs	r3, IPSR
100005aa:	2203      	movs	r2, #3
100005ac:	2501      	movs	r5, #1
100005ae:	401a      	ands	r2, r3
100005b0:	4095      	lsls	r5, r2
100005b2:	0091      	lsls	r1, r2, #2
100005b4:	4688      	mov	r8, r1
100005b6:	46a9      	mov	r9, r5
100005b8:	4bb3      	ldr	r3, [pc, #716]	@ (10000888 <alarm_pool_irq_handler+0x2f0>)
100005ba:	9203      	str	r2, [sp, #12]
100005bc:	585c      	ldr	r4, [r3, r1]
100005be:	4bb3      	ldr	r3, [pc, #716]	@ (1000088c <alarm_pool_irq_handler+0x2f4>)
100005c0:	601d      	str	r5, [r3, #0]
100005c2:	4bb3      	ldr	r3, [pc, #716]	@ (10000890 <alarm_pool_irq_handler+0x2f8>)
100005c4:	9304      	str	r3, [sp, #16]
100005c6:	464b      	mov	r3, r9
100005c8:	48b2      	ldr	r0, [pc, #712]	@ (10000894 <alarm_pool_irq_handler+0x2fc>)
100005ca:	6343      	str	r3, [r0, #52]	@ 0x34
100005cc:	2308      	movs	r3, #8
100005ce:	5ee5      	ldrsh	r5, [r4, r3]
100005d0:	2d00      	cmp	r5, #0
100005d2:	da37      	bge.n	10000644 <alarm_pool_irq_handler+0xac>
100005d4:	88a3      	ldrh	r3, [r4, #4]
100005d6:	b21b      	sxth	r3, r3
100005d8:	2b00      	cmp	r3, #0
100005da:	db00      	blt.n	100005de <alarm_pool_irq_handler+0x46>
100005dc:	e0ad      	b.n	1000073a <alarm_pool_irq_handler+0x1a2>
100005de:	79a3      	ldrb	r3, [r4, #6]
100005e0:	2b00      	cmp	r3, #0
100005e2:	d000      	beq.n	100005e6 <alarm_pool_irq_handler+0x4e>
100005e4:	e0ee      	b.n	100007c4 <alarm_pool_irq_handler+0x22c>
100005e6:	2308      	movs	r3, #8
100005e8:	5ee0      	ldrsh	r0, [r4, r3]
100005ea:	2800      	cmp	r0, #0
100005ec:	db20      	blt.n	10000630 <alarm_pool_irq_handler+0x98>
100005ee:	0043      	lsls	r3, r0, #1
100005f0:	6962      	ldr	r2, [r4, #20]
100005f2:	181b      	adds	r3, r3, r0
100005f4:	00db      	lsls	r3, r3, #3
100005f6:	18d3      	adds	r3, r2, r3
100005f8:	689e      	ldr	r6, [r3, #8]
100005fa:	68dd      	ldr	r5, [r3, #12]
100005fc:	1c73      	adds	r3, r6, #1
100005fe:	d100      	bne.n	10000602 <alarm_pool_irq_handler+0x6a>
10000600:	e111      	b.n	10000826 <alarm_pool_irq_handler+0x28e>
10000602:	48a4      	ldr	r0, [pc, #656]	@ (10000894 <alarm_pool_irq_handler+0x2fc>)
10000604:	0001      	movs	r1, r0
10000606:	4441      	add	r1, r8
10000608:	6a82      	ldr	r2, [r0, #40]	@ 0x28
1000060a:	690b      	ldr	r3, [r1, #16]
1000060c:	1ab7      	subs	r7, r6, r2
1000060e:	1a9b      	subs	r3, r3, r2
10000610:	429f      	cmp	r7, r3
10000612:	d315      	bcc.n	10000640 <alarm_pool_irq_handler+0xa8>
10000614:	2301      	movs	r3, #1
10000616:	6a02      	ldr	r2, [r0, #32]
10000618:	9803      	ldr	r0, [sp, #12]
1000061a:	4083      	lsls	r3, r0
1000061c:	421a      	tst	r2, r3
1000061e:	d00f      	beq.n	10000640 <alarm_pool_irq_handler+0xa8>
10000620:	489c      	ldr	r0, [pc, #624]	@ (10000894 <alarm_pool_irq_handler+0x2fc>)
10000622:	f000 fac9 	bl	10000bb8 <timer_time_us_64>
10000626:	428d      	cmp	r5, r1
10000628:	dc02      	bgt.n	10000630 <alarm_pool_irq_handler+0x98>
1000062a:	d1cc      	bne.n	100005c6 <alarm_pool_irq_handler+0x2e>
1000062c:	4286      	cmp	r6, r0
1000062e:	d9ca      	bls.n	100005c6 <alarm_pool_irq_handler+0x2e>
10000630:	bf40      	sev
10000632:	b007      	add	sp, #28
10000634:	bcf0      	pop	{r4, r5, r6, r7}
10000636:	46bb      	mov	fp, r7
10000638:	46b2      	mov	sl, r6
1000063a:	46a9      	mov	r9, r5
1000063c:	46a0      	mov	r8, r4
1000063e:	bdf0      	pop	{r4, r5, r6, r7, pc}
10000640:	610e      	str	r6, [r1, #16]
10000642:	e7ed      	b.n	10000620 <alarm_pool_irq_handler+0x88>
10000644:	6962      	ldr	r2, [r4, #20]
10000646:	006b      	lsls	r3, r5, #1
10000648:	4692      	mov	sl, r2
1000064a:	195b      	adds	r3, r3, r5
1000064c:	00db      	lsls	r3, r3, #3
1000064e:	449a      	add	sl, r3
10000650:	4653      	mov	r3, sl
10000652:	689e      	ldr	r6, [r3, #8]
10000654:	68df      	ldr	r7, [r3, #12]
10000656:	f000 faaf 	bl	10000bb8 <timer_time_us_64>
1000065a:	428f      	cmp	r7, r1
1000065c:	dcba      	bgt.n	100005d4 <alarm_pool_irq_handler+0x3c>
1000065e:	d100      	bne.n	10000662 <alarm_pool_irq_handler+0xca>
10000660:	e103      	b.n	1000086a <alarm_pool_irq_handler+0x2d2>
10000662:	2f00      	cmp	r7, #0
10000664:	da00      	bge.n	10000668 <alarm_pool_irq_handler+0xd0>
10000666:	e0e8      	b.n	1000083a <alarm_pool_irq_handler+0x2a2>
10000668:	4652      	mov	r2, sl
1000066a:	4653      	mov	r3, sl
1000066c:	6952      	ldr	r2, [r2, #20]
1000066e:	691b      	ldr	r3, [r3, #16]
10000670:	4693      	mov	fp, r2
10000672:	9a04      	ldr	r2, [sp, #16]
10000674:	4293      	cmp	r3, r2
10000676:	d100      	bne.n	1000067a <alarm_pool_irq_handler+0xe2>
10000678:	e0d9      	b.n	1000082e <alarm_pool_irq_handler+0x296>
1000067a:	4652      	mov	r2, sl
1000067c:	2108      	movs	r1, #8
1000067e:	5e60      	ldrsh	r0, [r4, r1]
10000680:	8852      	ldrh	r2, [r2, #2]
10000682:	0400      	lsls	r0, r0, #16
10000684:	4659      	mov	r1, fp
10000686:	4310      	orrs	r0, r2
10000688:	4798      	blx	r3
1000068a:	9000      	str	r0, [sp, #0]
1000068c:	9101      	str	r1, [sp, #4]
1000068e:	9900      	ldr	r1, [sp, #0]
10000690:	9a01      	ldr	r2, [sp, #4]
10000692:	000b      	movs	r3, r1
10000694:	0010      	movs	r0, r2
10000696:	4313      	orrs	r3, r2
10000698:	d100      	bne.n	1000069c <alarm_pool_irq_handler+0x104>
1000069a:	e0ce      	b.n	1000083a <alarm_pool_irq_handler+0x2a2>
1000069c:	0013      	movs	r3, r2
1000069e:	000a      	movs	r2, r1
100006a0:	1ab6      	subs	r6, r6, r2
100006a2:	419f      	sbcs	r7, r3
100006a4:	2800      	cmp	r0, #0
100006a6:	db06      	blt.n	100006b6 <alarm_pool_irq_handler+0x11e>
100006a8:	487a      	ldr	r0, [pc, #488]	@ (10000894 <alarm_pool_irq_handler+0x2fc>)
100006aa:	f000 fa85 	bl	10000bb8 <timer_time_us_64>
100006ae:	9e00      	ldr	r6, [sp, #0]
100006b0:	9f01      	ldr	r7, [sp, #4]
100006b2:	1836      	adds	r6, r6, r0
100006b4:	414f      	adcs	r7, r1
100006b6:	4653      	mov	r3, sl
100006b8:	609e      	str	r6, [r3, #8]
100006ba:	60df      	str	r7, [r3, #12]
100006bc:	2200      	movs	r2, #0
100006be:	5e9a      	ldrsh	r2, [r3, r2]
100006c0:	2a00      	cmp	r2, #0
100006c2:	da00      	bge.n	100006c6 <alarm_pool_irq_handler+0x12e>
100006c4:	e786      	b.n	100005d4 <alarm_pool_irq_handler+0x3c>
100006c6:	0053      	lsls	r3, r2, #1
100006c8:	1899      	adds	r1, r3, r2
100006ca:	6960      	ldr	r0, [r4, #20]
100006cc:	00c9      	lsls	r1, r1, #3
100006ce:	1841      	adds	r1, r0, r1
100006d0:	9302      	str	r3, [sp, #8]
100006d2:	688b      	ldr	r3, [r1, #8]
100006d4:	68c9      	ldr	r1, [r1, #12]
100006d6:	469b      	mov	fp, r3
100006d8:	42b9      	cmp	r1, r7
100006da:	dd00      	ble.n	100006de <alarm_pool_irq_handler+0x146>
100006dc:	e77a      	b.n	100005d4 <alarm_pool_irq_handler+0x3c>
100006de:	d102      	bne.n	100006e6 <alarm_pool_irq_handler+0x14e>
100006e0:	42b3      	cmp	r3, r6
100006e2:	d900      	bls.n	100006e6 <alarm_pool_irq_handler+0x14e>
100006e4:	e776      	b.n	100005d4 <alarm_pool_irq_handler+0x3c>
100006e6:	2308      	movs	r3, #8
100006e8:	469c      	mov	ip, r3
100006ea:	44a4      	add	ip, r4
100006ec:	9505      	str	r5, [sp, #20]
100006ee:	4665      	mov	r5, ip
100006f0:	8122      	strh	r2, [r4, #8]
100006f2:	46a4      	mov	ip, r4
100006f4:	9b02      	ldr	r3, [sp, #8]
100006f6:	002c      	movs	r4, r5
100006f8:	e006      	b.n	10000708 <alarm_pool_irq_handler+0x170>
100006fa:	0053      	lsls	r3, r2, #1
100006fc:	1899      	adds	r1, r3, r2
100006fe:	00c9      	lsls	r1, r1, #3
10000700:	1841      	adds	r1, r0, r1
10000702:	688d      	ldr	r5, [r1, #8]
10000704:	68c9      	ldr	r1, [r1, #12]
10000706:	46ab      	mov	fp, r5
10000708:	189b      	adds	r3, r3, r2
1000070a:	00db      	lsls	r3, r3, #3
1000070c:	18c3      	adds	r3, r0, r3
1000070e:	42b9      	cmp	r1, r7
10000710:	dc06      	bgt.n	10000720 <alarm_pool_irq_handler+0x188>
10000712:	d100      	bne.n	10000716 <alarm_pool_irq_handler+0x17e>
10000714:	e0b3      	b.n	1000087e <alarm_pool_irq_handler+0x2e6>
10000716:	001c      	movs	r4, r3
10000718:	2300      	movs	r3, #0
1000071a:	5ee2      	ldrsh	r2, [r4, r3]
1000071c:	2a00      	cmp	r2, #0
1000071e:	daec      	bge.n	100006fa <alarm_pool_irq_handler+0x162>
10000720:	0023      	movs	r3, r4
10000722:	4664      	mov	r4, ip
10000724:	469c      	mov	ip, r3
10000726:	4653      	mov	r3, sl
10000728:	801a      	strh	r2, [r3, #0]
1000072a:	4663      	mov	r3, ip
1000072c:	9d05      	ldr	r5, [sp, #20]
1000072e:	801d      	strh	r5, [r3, #0]
10000730:	88a3      	ldrh	r3, [r4, #4]
10000732:	b21b      	sxth	r3, r3
10000734:	2b00      	cmp	r3, #0
10000736:	da00      	bge.n	1000073a <alarm_pool_irq_handler+0x1a2>
10000738:	e751      	b.n	100005de <alarm_pool_irq_handler+0x46>
1000073a:	6922      	ldr	r2, [r4, #16]
1000073c:	f3ef 8110 	mrs	r1, PRIMASK
10000740:	b672      	cpsid	i
10000742:	6813      	ldr	r3, [r2, #0]
10000744:	2b00      	cmp	r3, #0
10000746:	d0fc      	beq.n	10000742 <alarm_pool_irq_handler+0x1aa>
10000748:	f3bf 8f5f 	dmb	sy
1000074c:	2301      	movs	r3, #1
1000074e:	88a7      	ldrh	r7, [r4, #4]
10000750:	425b      	negs	r3, r3
10000752:	80a3      	strh	r3, [r4, #4]
10000754:	b23f      	sxth	r7, r7
10000756:	6923      	ldr	r3, [r4, #16]
10000758:	f3bf 8f5f 	dmb	sy
1000075c:	2200      	movs	r2, #0
1000075e:	601a      	str	r2, [r3, #0]
10000760:	f381 8810 	msr	PRIMASK, r1
10000764:	2f00      	cmp	r7, #0
10000766:	da00      	bge.n	1000076a <alarm_pool_irq_handler+0x1d2>
10000768:	e739      	b.n	100005de <alarm_pool_irq_handler+0x46>
1000076a:	0023      	movs	r3, r4
1000076c:	3308      	adds	r3, #8
1000076e:	0022      	movs	r2, r4
10000770:	469a      	mov	sl, r3
10000772:	6966      	ldr	r6, [r4, #20]
10000774:	007b      	lsls	r3, r7, #1
10000776:	19db      	adds	r3, r3, r7
10000778:	00db      	lsls	r3, r3, #3
1000077a:	18f3      	adds	r3, r6, r3
1000077c:	6899      	ldr	r1, [r3, #8]
1000077e:	4650      	mov	r0, sl
10000780:	468c      	mov	ip, r1
10000782:	2408      	movs	r4, #8
10000784:	5f11      	ldrsh	r1, [r2, r4]
10000786:	68dd      	ldr	r5, [r3, #12]
10000788:	2900      	cmp	r1, #0
1000078a:	db10      	blt.n	100007ae <alarm_pool_irq_handler+0x216>
1000078c:	9302      	str	r3, [sp, #8]
1000078e:	e006      	b.n	1000079e <alarm_pool_irq_handler+0x206>
10000790:	42ab      	cmp	r3, r5
10000792:	d044      	beq.n	1000081e <alarm_pool_irq_handler+0x286>
10000794:	2300      	movs	r3, #0
10000796:	5ee1      	ldrsh	r1, [r4, r3]
10000798:	0020      	movs	r0, r4
1000079a:	2900      	cmp	r1, #0
1000079c:	db06      	blt.n	100007ac <alarm_pool_irq_handler+0x214>
1000079e:	004c      	lsls	r4, r1, #1
100007a0:	1864      	adds	r4, r4, r1
100007a2:	00e4      	lsls	r4, r4, #3
100007a4:	1934      	adds	r4, r6, r4
100007a6:	68e3      	ldr	r3, [r4, #12]
100007a8:	42ab      	cmp	r3, r5
100007aa:	ddf1      	ble.n	10000790 <alarm_pool_irq_handler+0x1f8>
100007ac:	9b02      	ldr	r3, [sp, #8]
100007ae:	8007      	strh	r7, [r0, #0]
100007b0:	2000      	movs	r0, #0
100007b2:	5e1f      	ldrsh	r7, [r3, r0]
100007b4:	8019      	strh	r1, [r3, #0]
100007b6:	2f00      	cmp	r7, #0
100007b8:	dadc      	bge.n	10000774 <alarm_pool_irq_handler+0x1dc>
100007ba:	0014      	movs	r4, r2
100007bc:	79a3      	ldrb	r3, [r4, #6]
100007be:	2b00      	cmp	r3, #0
100007c0:	d100      	bne.n	100007c4 <alarm_pool_irq_handler+0x22c>
100007c2:	e710      	b.n	100005e6 <alarm_pool_irq_handler+0x4e>
100007c4:	2300      	movs	r3, #0
100007c6:	71a3      	strb	r3, [r4, #6]
100007c8:	0026      	movs	r6, r4
100007ca:	2308      	movs	r3, #8
100007cc:	5ee1      	ldrsh	r1, [r4, r3]
100007ce:	3608      	adds	r6, #8
100007d0:	1c4b      	adds	r3, r1, #1
100007d2:	d100      	bne.n	100007d6 <alarm_pool_irq_handler+0x23e>
100007d4:	e72c      	b.n	10000630 <alarm_pool_irq_handler+0x98>
100007d6:	0008      	movs	r0, r1
100007d8:	46a2      	mov	sl, r4
100007da:	6965      	ldr	r5, [r4, #20]
100007dc:	e002      	b.n	100007e4 <alarm_pool_irq_handler+0x24c>
100007de:	003e      	movs	r6, r7
100007e0:	1c4b      	adds	r3, r1, #1
100007e2:	d01a      	beq.n	1000081a <alarm_pool_irq_handler+0x282>
100007e4:	004b      	lsls	r3, r1, #1
100007e6:	185b      	adds	r3, r3, r1
100007e8:	00db      	lsls	r3, r3, #3
100007ea:	18ef      	adds	r7, r5, r3
100007ec:	000a      	movs	r2, r1
100007ee:	468c      	mov	ip, r1
100007f0:	5ee9      	ldrsh	r1, [r5, r3]
100007f2:	887b      	ldrh	r3, [r7, #2]
100007f4:	b21b      	sxth	r3, r3
100007f6:	2b00      	cmp	r3, #0
100007f8:	daf1      	bge.n	100007de <alarm_pool_irq_handler+0x246>
100007fa:	2301      	movs	r3, #1
100007fc:	425b      	negs	r3, r3
100007fe:	17dc      	asrs	r4, r3, #31
10000800:	60bb      	str	r3, [r7, #8]
10000802:	60fc      	str	r4, [r7, #12]
10000804:	4282      	cmp	r2, r0
10000806:	d005      	beq.n	10000814 <alarm_pool_irq_handler+0x27c>
10000808:	4653      	mov	r3, sl
1000080a:	8031      	strh	r1, [r6, #0]
1000080c:	891b      	ldrh	r3, [r3, #8]
1000080e:	803b      	strh	r3, [r7, #0]
10000810:	4653      	mov	r3, sl
10000812:	811a      	strh	r2, [r3, #8]
10000814:	4660      	mov	r0, ip
10000816:	1c4b      	adds	r3, r1, #1
10000818:	d1e4      	bne.n	100007e4 <alarm_pool_irq_handler+0x24c>
1000081a:	4654      	mov	r4, sl
1000081c:	e6e5      	b.n	100005ea <alarm_pool_irq_handler+0x52>
1000081e:	68a3      	ldr	r3, [r4, #8]
10000820:	4563      	cmp	r3, ip
10000822:	d9b7      	bls.n	10000794 <alarm_pool_irq_handler+0x1fc>
10000824:	e7c2      	b.n	100007ac <alarm_pool_irq_handler+0x214>
10000826:	1c6b      	adds	r3, r5, #1
10000828:	d000      	beq.n	1000082c <alarm_pool_irq_handler+0x294>
1000082a:	e6ea      	b.n	10000602 <alarm_pool_irq_handler+0x6a>
1000082c:	e6f8      	b.n	10000620 <alarm_pool_irq_handler+0x88>
1000082e:	465b      	mov	r3, fp
10000830:	4658      	mov	r0, fp
10000832:	691b      	ldr	r3, [r3, #16]
10000834:	4798      	blx	r3
10000836:	2800      	cmp	r0, #0
10000838:	d11b      	bne.n	10000872 <alarm_pool_irq_handler+0x2da>
1000083a:	4653      	mov	r3, sl
1000083c:	881b      	ldrh	r3, [r3, #0]
1000083e:	6922      	ldr	r2, [r4, #16]
10000840:	8123      	strh	r3, [r4, #8]
10000842:	f3ef 8310 	mrs	r3, PRIMASK
10000846:	b672      	cpsid	i
10000848:	6811      	ldr	r1, [r2, #0]
1000084a:	2900      	cmp	r1, #0
1000084c:	d0fc      	beq.n	10000848 <alarm_pool_irq_handler+0x2b0>
1000084e:	f3bf 8f5f 	dmb	sy
10000852:	4651      	mov	r1, sl
10000854:	8862      	ldrh	r2, [r4, #2]
10000856:	800a      	strh	r2, [r1, #0]
10000858:	6922      	ldr	r2, [r4, #16]
1000085a:	8065      	strh	r5, [r4, #2]
1000085c:	f3bf 8f5f 	dmb	sy
10000860:	2100      	movs	r1, #0
10000862:	6011      	str	r1, [r2, #0]
10000864:	f383 8810 	msr	PRIMASK, r3
10000868:	e6b4      	b.n	100005d4 <alarm_pool_irq_handler+0x3c>
1000086a:	4286      	cmp	r6, r0
1000086c:	d800      	bhi.n	10000870 <alarm_pool_irq_handler+0x2d8>
1000086e:	e6f8      	b.n	10000662 <alarm_pool_irq_handler+0xca>
10000870:	e6b0      	b.n	100005d4 <alarm_pool_irq_handler+0x3c>
10000872:	465b      	mov	r3, fp
10000874:	681a      	ldr	r2, [r3, #0]
10000876:	685b      	ldr	r3, [r3, #4]
10000878:	9200      	str	r2, [sp, #0]
1000087a:	9301      	str	r3, [sp, #4]
1000087c:	e707      	b.n	1000068e <alarm_pool_irq_handler+0xf6>
1000087e:	45b3      	cmp	fp, r6
10000880:	d800      	bhi.n	10000884 <alarm_pool_irq_handler+0x2ec>
10000882:	e748      	b.n	10000716 <alarm_pool_irq_handler+0x17e>
10000884:	e74c      	b.n	10000720 <alarm_pool_irq_handler+0x188>
10000886:	46c0      	nop			@ (mov r8, r8)
10000888:	20000750 	.word	0x20000750
1000088c:	4005703c 	.word	0x4005703c
10000890:	10000599 	.word	0x10000599
10000894:	40054000 	.word	0x40054000

10000898 <runtime_init_default_alarm_pool>:
10000898:	b570      	push	{r4, r5, r6, lr}
1000089a:	4c2e      	ldr	r4, [pc, #184]	@ (10000954 <runtime_init_default_alarm_pool+0xbc>)
1000089c:	6925      	ldr	r5, [r4, #16]
1000089e:	2d00      	cmp	r5, #0
100008a0:	d004      	beq.n	100008ac <runtime_init_default_alarm_pool+0x14>
100008a2:	210a      	movs	r1, #10
100008a4:	482c      	ldr	r0, [pc, #176]	@ (10000958 <runtime_init_default_alarm_pool+0xc0>)
100008a6:	f7ff fe2f 	bl	10000508 <lock_init>
100008aa:	bd70      	pop	{r4, r5, r6, pc}
100008ac:	4e2b      	ldr	r6, [pc, #172]	@ (1000095c <runtime_init_default_alarm_pool+0xc4>)
100008ae:	2103      	movs	r1, #3
100008b0:	0030      	movs	r0, r6
100008b2:	f000 f977 	bl	10000ba4 <timer_hardware_alarm_claim>
100008b6:	60e6      	str	r6, [r4, #12]
100008b8:	f7ff fdbe 	bl	10000438 <next_striped_spin_lock_num>
100008bc:	4b28      	ldr	r3, [pc, #160]	@ (10000960 <runtime_init_default_alarm_pool+0xc8>)
100008be:	2203      	movs	r2, #3
100008c0:	469c      	mov	ip, r3
100008c2:	23d0      	movs	r3, #208	@ 0xd0
100008c4:	7022      	strb	r2, [r4, #0]
100008c6:	061b      	lsls	r3, r3, #24
100008c8:	681b      	ldr	r3, [r3, #0]
100008ca:	2101      	movs	r1, #1
100008cc:	7063      	strb	r3, [r4, #1]
100008ce:	4b25      	ldr	r3, [pc, #148]	@ (10000964 <runtime_init_default_alarm_pool+0xcc>)
100008d0:	4460      	add	r0, ip
100008d2:	60a3      	str	r3, [r4, #8]
100008d4:	230f      	movs	r3, #15
100008d6:	0080      	lsls	r0, r0, #2
100008d8:	6120      	str	r0, [r4, #16]
100008da:	2002      	movs	r0, #2
100008dc:	8063      	strh	r3, [r4, #2]
100008de:	6963      	ldr	r3, [r4, #20]
100008e0:	4249      	negs	r1, r1
100008e2:	80a1      	strh	r1, [r4, #4]
100008e4:	8019      	strh	r1, [r3, #0]
100008e6:	3102      	adds	r1, #2
100008e8:	8619      	strh	r1, [r3, #48]	@ 0x30
100008ea:	3147      	adds	r1, #71	@ 0x47
100008ec:	831d      	strh	r5, [r3, #24]
100008ee:	5258      	strh	r0, [r3, r1]
100008f0:	3118      	adds	r1, #24
100008f2:	525a      	strh	r2, [r3, r1]
100008f4:	3275      	adds	r2, #117	@ 0x75
100008f6:	395c      	subs	r1, #92	@ 0x5c
100008f8:	5299      	strh	r1, [r3, r2]
100008fa:	3218      	adds	r2, #24
100008fc:	3101      	adds	r1, #1
100008fe:	5299      	strh	r1, [r3, r2]
10000900:	3218      	adds	r2, #24
10000902:	3101      	adds	r1, #1
10000904:	5299      	strh	r1, [r3, r2]
10000906:	3218      	adds	r2, #24
10000908:	3101      	adds	r1, #1
1000090a:	5299      	strh	r1, [r3, r2]
1000090c:	3508      	adds	r5, #8
1000090e:	3218      	adds	r2, #24
10000910:	529d      	strh	r5, [r3, r2]
10000912:	3102      	adds	r1, #2
10000914:	3218      	adds	r2, #24
10000916:	5299      	strh	r1, [r3, r2]
10000918:	3218      	adds	r2, #24
1000091a:	3101      	adds	r1, #1
1000091c:	5299      	strh	r1, [r3, r2]
1000091e:	3218      	adds	r2, #24
10000920:	3101      	adds	r1, #1
10000922:	5299      	strh	r1, [r3, r2]
10000924:	3218      	adds	r2, #24
10000926:	3101      	adds	r1, #1
10000928:	5299      	strh	r1, [r3, r2]
1000092a:	3218      	adds	r2, #24
1000092c:	3101      	adds	r1, #1
1000092e:	5299      	strh	r1, [r3, r2]
10000930:	3218      	adds	r2, #24
10000932:	3101      	adds	r1, #1
10000934:	5299      	strh	r1, [r3, r2]
10000936:	4b0c      	ldr	r3, [pc, #48]	@ (10000968 <runtime_init_default_alarm_pool+0xd0>)
10000938:	490c      	ldr	r1, [pc, #48]	@ (1000096c <runtime_init_default_alarm_pool+0xd4>)
1000093a:	60dc      	str	r4, [r3, #12]
1000093c:	3001      	adds	r0, #1
1000093e:	6235      	str	r5, [r6, #32]
10000940:	f7ff fdb8 	bl	100004b4 <irq_set_exclusive_handler>
10000944:	2101      	movs	r1, #1
10000946:	2003      	movs	r0, #3
10000948:	f7ff fda2 	bl	10000490 <irq_set_enabled>
1000094c:	4b08      	ldr	r3, [pc, #32]	@ (10000970 <runtime_init_default_alarm_pool+0xd8>)
1000094e:	601d      	str	r5, [r3, #0]
10000950:	e7a7      	b.n	100008a2 <runtime_init_default_alarm_pool+0xa>
10000952:	46c0      	nop			@ (mov r8, r8)
10000954:	2000019c 	.word	0x2000019c
10000958:	20000764 	.word	0x20000764
1000095c:	40054000 	.word	0x40054000
10000960:	34000040 	.word	0x34000040
10000964:	0010ffff 	.word	0x0010ffff
10000968:	20000750 	.word	0x20000750
1000096c:	10000599 	.word	0x10000599
10000970:	40056038 	.word	0x40056038

10000974 <alarm_pool_add_alarm_at_force_in_context>:
10000974:	b570      	push	{r4, r5, r6, lr}
10000976:	0001      	movs	r1, r0
10000978:	6904      	ldr	r4, [r0, #16]
1000097a:	f3ef 8c10 	mrs	ip, PRIMASK
1000097e:	b672      	cpsid	i
10000980:	6820      	ldr	r0, [r4, #0]
10000982:	2800      	cmp	r0, #0
10000984:	d0fc      	beq.n	10000980 <alarm_pool_add_alarm_at_force_in_context+0xc>
10000986:	f3bf 8f5f 	dmb	sy
1000098a:	2002      	movs	r0, #2
1000098c:	5e0d      	ldrsh	r5, [r1, r0]
1000098e:	694c      	ldr	r4, [r1, #20]
10000990:	0068      	lsls	r0, r5, #1
10000992:	1940      	adds	r0, r0, r5
10000994:	00c0      	lsls	r0, r0, #3
10000996:	1824      	adds	r4, r4, r0
10000998:	6908      	ldr	r0, [r1, #16]
1000099a:	2d00      	cmp	r5, #0
1000099c:	db36      	blt.n	10000a0c <alarm_pool_add_alarm_at_force_in_context+0x98>
1000099e:	8826      	ldrh	r6, [r4, #0]
100009a0:	804e      	strh	r6, [r1, #2]
100009a2:	f3bf 8f5f 	dmb	sy
100009a6:	2600      	movs	r6, #0
100009a8:	6006      	str	r6, [r0, #0]
100009aa:	f38c 8810 	msr	PRIMASK, ip
100009ae:	60e3      	str	r3, [r4, #12]
100009b0:	8863      	ldrh	r3, [r4, #2]
100009b2:	9804      	ldr	r0, [sp, #16]
100009b4:	3301      	adds	r3, #1
100009b6:	6120      	str	r0, [r4, #16]
100009b8:	045b      	lsls	r3, r3, #17
100009ba:	9805      	ldr	r0, [sp, #20]
100009bc:	0c5b      	lsrs	r3, r3, #17
100009be:	60a2      	str	r2, [r4, #8]
100009c0:	6160      	str	r0, [r4, #20]
100009c2:	1c1a      	adds	r2, r3, #0
100009c4:	2b00      	cmp	r3, #0
100009c6:	d01f      	beq.n	10000a08 <alarm_pool_add_alarm_at_force_in_context+0x94>
100009c8:	b293      	uxth	r3, r2
100009ca:	0428      	lsls	r0, r5, #16
100009cc:	8062      	strh	r2, [r4, #2]
100009ce:	4318      	orrs	r0, r3
100009d0:	690a      	ldr	r2, [r1, #16]
100009d2:	f3ef 8c10 	mrs	ip, PRIMASK
100009d6:	b672      	cpsid	i
100009d8:	6813      	ldr	r3, [r2, #0]
100009da:	2b00      	cmp	r3, #0
100009dc:	d0fc      	beq.n	100009d8 <alarm_pool_add_alarm_at_force_in_context+0x64>
100009de:	f3bf 8f5f 	dmb	sy
100009e2:	888b      	ldrh	r3, [r1, #4]
100009e4:	8023      	strh	r3, [r4, #0]
100009e6:	808d      	strh	r5, [r1, #4]
100009e8:	690b      	ldr	r3, [r1, #16]
100009ea:	f3bf 8f5f 	dmb	sy
100009ee:	2200      	movs	r2, #0
100009f0:	601a      	str	r2, [r3, #0]
100009f2:	f38c 8810 	msr	PRIMASK, ip
100009f6:	780b      	ldrb	r3, [r1, #0]
100009f8:	3201      	adds	r2, #1
100009fa:	409a      	lsls	r2, r3
100009fc:	68cb      	ldr	r3, [r1, #12]
100009fe:	4908      	ldr	r1, [pc, #32]	@ (10000a20 <alarm_pool_add_alarm_at_force_in_context+0xac>)
10000a00:	468c      	mov	ip, r1
10000a02:	4463      	add	r3, ip
10000a04:	601a      	str	r2, [r3, #0]
10000a06:	bd70      	pop	{r4, r5, r6, pc}
10000a08:	2201      	movs	r2, #1
10000a0a:	e7dd      	b.n	100009c8 <alarm_pool_add_alarm_at_force_in_context+0x54>
10000a0c:	f3bf 8f5f 	dmb	sy
10000a10:	2300      	movs	r3, #0
10000a12:	6003      	str	r3, [r0, #0]
10000a14:	f38c 8810 	msr	PRIMASK, ip
10000a18:	2001      	movs	r0, #1
10000a1a:	4240      	negs	r0, r0
10000a1c:	e7f3      	b.n	10000a06 <alarm_pool_add_alarm_at_force_in_context+0x92>
10000a1e:	46c0      	nop			@ (mov r8, r8)
10000a20:	0000203c 	.word	0x0000203c

10000a24 <alarm_pool_cancel_alarm>:
10000a24:	b510      	push	{r4, lr}
10000a26:	8943      	ldrh	r3, [r0, #10]
10000a28:	140a      	asrs	r2, r1, #16
10000a2a:	4293      	cmp	r3, r2
10000a2c:	dd1a      	ble.n	10000a64 <alarm_pool_cancel_alarm+0x40>
10000a2e:	0053      	lsls	r3, r2, #1
10000a30:	189b      	adds	r3, r3, r2
10000a32:	6942      	ldr	r2, [r0, #20]
10000a34:	00db      	lsls	r3, r3, #3
10000a36:	18d3      	adds	r3, r2, r3
10000a38:	6904      	ldr	r4, [r0, #16]
10000a3a:	f3ef 8c10 	mrs	ip, PRIMASK
10000a3e:	b672      	cpsid	i
10000a40:	6822      	ldr	r2, [r4, #0]
10000a42:	2a00      	cmp	r2, #0
10000a44:	d0fc      	beq.n	10000a40 <alarm_pool_cancel_alarm+0x1c>
10000a46:	f3bf 8f5f 	dmb	sy
10000a4a:	885a      	ldrh	r2, [r3, #2]
10000a4c:	0409      	lsls	r1, r1, #16
10000a4e:	b294      	uxth	r4, r2
10000a50:	0c09      	lsrs	r1, r1, #16
10000a52:	428a      	cmp	r2, r1
10000a54:	d008      	beq.n	10000a68 <alarm_pool_cancel_alarm+0x44>
10000a56:	6903      	ldr	r3, [r0, #16]
10000a58:	f3bf 8f5f 	dmb	sy
10000a5c:	2200      	movs	r2, #0
10000a5e:	601a      	str	r2, [r3, #0]
10000a60:	f38c 8810 	msr	PRIMASK, ip
10000a64:	2000      	movs	r0, #0
10000a66:	bd10      	pop	{r4, pc}
10000a68:	2280      	movs	r2, #128	@ 0x80
10000a6a:	0212      	lsls	r2, r2, #8
10000a6c:	4314      	orrs	r4, r2
10000a6e:	805c      	strh	r4, [r3, #2]
10000a70:	2301      	movs	r3, #1
10000a72:	6902      	ldr	r2, [r0, #16]
10000a74:	7183      	strb	r3, [r0, #6]
10000a76:	f3bf 8f5f 	dmb	sy
10000a7a:	2100      	movs	r1, #0
10000a7c:	6011      	str	r1, [r2, #0]
10000a7e:	f38c 8810 	msr	PRIMASK, ip
10000a82:	4904      	ldr	r1, [pc, #16]	@ (10000a94 <alarm_pool_cancel_alarm+0x70>)
10000a84:	7802      	ldrb	r2, [r0, #0]
10000a86:	468c      	mov	ip, r1
10000a88:	4093      	lsls	r3, r2
10000a8a:	68c2      	ldr	r2, [r0, #12]
10000a8c:	2001      	movs	r0, #1
10000a8e:	4462      	add	r2, ip
10000a90:	6013      	str	r3, [r2, #0]
10000a92:	e7e8      	b.n	10000a66 <alarm_pool_cancel_alarm+0x42>
10000a94:	0000203c 	.word	0x0000203c

10000a98 <best_effort_wfe_or_timeout>:
10000a98:	b5f0      	push	{r4, r5, r6, r7, lr}
10000a9a:	4657      	mov	r7, sl
10000a9c:	464e      	mov	r6, r9
10000a9e:	46de      	mov	lr, fp
10000aa0:	4645      	mov	r5, r8
10000aa2:	b5e0      	push	{r5, r6, r7, lr}
10000aa4:	0006      	movs	r6, r0
10000aa6:	000f      	movs	r7, r1
10000aa8:	b085      	sub	sp, #20
10000aaa:	f3ef 8305 	mrs	r3, IPSR
10000aae:	4699      	mov	r9, r3
10000ab0:	468b      	mov	fp, r1
10000ab2:	2b00      	cmp	r3, #0
10000ab4:	d012      	beq.n	10000adc <best_effort_wfe_or_timeout+0x44>
10000ab6:	4938      	ldr	r1, [pc, #224]	@ (10000b98 <best_effort_wfe_or_timeout+0x100>)
10000ab8:	2000      	movs	r0, #0
10000aba:	6a4b      	ldr	r3, [r1, #36]	@ 0x24
10000abc:	42bb      	cmp	r3, r7
10000abe:	d306      	bcc.n	10000ace <best_effort_wfe_or_timeout+0x36>
10000ac0:	6a8a      	ldr	r2, [r1, #40]	@ 0x28
10000ac2:	1bdb      	subs	r3, r3, r7
10000ac4:	1e59      	subs	r1, r3, #1
10000ac6:	418b      	sbcs	r3, r1
10000ac8:	42b2      	cmp	r2, r6
10000aca:	4140      	adcs	r0, r0
10000acc:	4318      	orrs	r0, r3
10000ace:	b005      	add	sp, #20
10000ad0:	bcf0      	pop	{r4, r5, r6, r7}
10000ad2:	46bb      	mov	fp, r7
10000ad4:	46b2      	mov	sl, r6
10000ad6:	46a9      	mov	r9, r5
10000ad8:	46a0      	mov	r8, r4
10000ada:	bdf0      	pop	{r4, r5, r6, r7, pc}
10000adc:	4b2f      	ldr	r3, [pc, #188]	@ (10000b9c <best_effort_wfe_or_timeout+0x104>)
10000ade:	469a      	mov	sl, r3
10000ae0:	68db      	ldr	r3, [r3, #12]
10000ae2:	4698      	mov	r8, r3
10000ae4:	4653      	mov	r3, sl
10000ae6:	781b      	ldrb	r3, [r3, #0]
10000ae8:	4640      	mov	r0, r8
10000aea:	9303      	str	r3, [sp, #12]
10000aec:	f000 f864 	bl	10000bb8 <timer_time_us_64>
10000af0:	4642      	mov	r2, r8
10000af2:	9b03      	ldr	r3, [sp, #12]
10000af4:	0004      	movs	r4, r0
10000af6:	3304      	adds	r3, #4
10000af8:	009b      	lsls	r3, r3, #2
10000afa:	589b      	ldr	r3, [r3, r2]
10000afc:	000d      	movs	r5, r1
10000afe:	1a1b      	subs	r3, r3, r0
10000b00:	0039      	movs	r1, r7
10000b02:	0030      	movs	r0, r6
10000b04:	1b00      	subs	r0, r0, r4
10000b06:	41a9      	sbcs	r1, r5
10000b08:	4589      	cmp	r9, r1
10000b0a:	dc10      	bgt.n	10000b2e <best_effort_wfe_or_timeout+0x96>
10000b0c:	d00d      	beq.n	10000b2a <best_effort_wfe_or_timeout+0x92>
10000b0e:	bf20      	wfe
10000b10:	4a21      	ldr	r2, [pc, #132]	@ (10000b98 <best_effort_wfe_or_timeout+0x100>)
10000b12:	2000      	movs	r0, #0
10000b14:	6a53      	ldr	r3, [r2, #36]	@ 0x24
10000b16:	455b      	cmp	r3, fp
10000b18:	d3d9      	bcc.n	10000ace <best_effort_wfe_or_timeout+0x36>
10000b1a:	6a92      	ldr	r2, [r2, #40]	@ 0x28
10000b1c:	1bdb      	subs	r3, r3, r7
10000b1e:	1e59      	subs	r1, r3, #1
10000b20:	418b      	sbcs	r3, r1
10000b22:	42b2      	cmp	r2, r6
10000b24:	4140      	adcs	r0, r0
10000b26:	4318      	orrs	r0, r3
10000b28:	e7d1      	b.n	10000ace <best_effort_wfe_or_timeout+0x36>
10000b2a:	4283      	cmp	r3, r0
10000b2c:	d9ef      	bls.n	10000b0e <best_effort_wfe_or_timeout+0x76>
10000b2e:	f000 f84b 	bl	10000bc8 <time_us_64>
10000b32:	0032      	movs	r2, r6
10000b34:	003b      	movs	r3, r7
10000b36:	1a12      	subs	r2, r2, r0
10000b38:	418b      	sbcs	r3, r1
10000b3a:	2b00      	cmp	r3, #0
10000b3c:	db1a      	blt.n	10000b74 <best_effort_wfe_or_timeout+0xdc>
10000b3e:	2300      	movs	r3, #0
10000b40:	9301      	str	r3, [sp, #4]
10000b42:	4b17      	ldr	r3, [pc, #92]	@ (10000ba0 <best_effort_wfe_or_timeout+0x108>)
10000b44:	0032      	movs	r2, r6
10000b46:	9300      	str	r3, [sp, #0]
10000b48:	4650      	mov	r0, sl
10000b4a:	003b      	movs	r3, r7
10000b4c:	f7ff ff12 	bl	10000974 <alarm_pool_add_alarm_at_force_in_context>
10000b50:	1e01      	subs	r1, r0, #0
10000b52:	dd0f      	ble.n	10000b74 <best_effort_wfe_or_timeout+0xdc>
10000b54:	4b10      	ldr	r3, [pc, #64]	@ (10000b98 <best_effort_wfe_or_timeout+0x100>)
10000b56:	6a5a      	ldr	r2, [r3, #36]	@ 0x24
10000b58:	455a      	cmp	r2, fp
10000b5a:	d31b      	bcc.n	10000b94 <best_effort_wfe_or_timeout+0xfc>
10000b5c:	6a9b      	ldr	r3, [r3, #40]	@ 0x28
10000b5e:	42b3      	cmp	r3, r6
10000b60:	d316      	bcc.n	10000b90 <best_effort_wfe_or_timeout+0xf8>
10000b62:	4650      	mov	r0, sl
10000b64:	f7ff ff5e 	bl	10000a24 <alarm_pool_cancel_alarm>
10000b68:	4a0b      	ldr	r2, [pc, #44]	@ (10000b98 <best_effort_wfe_or_timeout+0x100>)
10000b6a:	2000      	movs	r0, #0
10000b6c:	6a53      	ldr	r3, [r2, #36]	@ 0x24
10000b6e:	455b      	cmp	r3, fp
10000b70:	d3ad      	bcc.n	10000ace <best_effort_wfe_or_timeout+0x36>
10000b72:	e7d2      	b.n	10000b1a <best_effort_wfe_or_timeout+0x82>
10000b74:	4a08      	ldr	r2, [pc, #32]	@ (10000b98 <best_effort_wfe_or_timeout+0x100>)
10000b76:	2000      	movs	r0, #0
10000b78:	6a53      	ldr	r3, [r2, #36]	@ 0x24
10000b7a:	455b      	cmp	r3, fp
10000b7c:	d3a7      	bcc.n	10000ace <best_effort_wfe_or_timeout+0x36>
10000b7e:	2000      	movs	r0, #0
10000b80:	6a92      	ldr	r2, [r2, #40]	@ 0x28
10000b82:	1bdb      	subs	r3, r3, r7
10000b84:	42b2      	cmp	r2, r6
10000b86:	4140      	adcs	r0, r0
10000b88:	1e5a      	subs	r2, r3, #1
10000b8a:	4193      	sbcs	r3, r2
10000b8c:	4318      	orrs	r0, r3
10000b8e:	e79e      	b.n	10000ace <best_effort_wfe_or_timeout+0x36>
10000b90:	455a      	cmp	r2, fp
10000b92:	d1e6      	bne.n	10000b62 <best_effort_wfe_or_timeout+0xca>
10000b94:	bf20      	wfe
10000b96:	e7e4      	b.n	10000b62 <best_effort_wfe_or_timeout+0xca>
10000b98:	40054000 	.word	0x40054000
10000b9c:	2000019c 	.word	0x2000019c
10000ba0:	10000569 	.word	0x10000569

10000ba4 <timer_hardware_alarm_claim>:
10000ba4:	b510      	push	{r4, lr}
10000ba6:	4a02      	ldr	r2, [pc, #8]	@ (10000bb0 <timer_hardware_alarm_claim+0xc>)
10000ba8:	4802      	ldr	r0, [pc, #8]	@ (10000bb4 <timer_hardware_alarm_claim+0x10>)
10000baa:	f7ff fc23 	bl	100003f4 <hw_claim_or_assert>
10000bae:	bd10      	pop	{r4, pc}
10000bb0:	100017d8 	.word	0x100017d8
10000bb4:	20000718 	.word	0x20000718

10000bb8 <timer_time_us_64>:
10000bb8:	0003      	movs	r3, r0
10000bba:	6a41      	ldr	r1, [r0, #36]	@ 0x24
10000bbc:	000a      	movs	r2, r1
10000bbe:	6a98      	ldr	r0, [r3, #40]	@ 0x28
10000bc0:	6a59      	ldr	r1, [r3, #36]	@ 0x24
10000bc2:	428a      	cmp	r2, r1
10000bc4:	d1fa      	bne.n	10000bbc <timer_time_us_64+0x4>
10000bc6:	4770      	bx	lr

10000bc8 <time_us_64>:
10000bc8:	4b03      	ldr	r3, [pc, #12]	@ (10000bd8 <time_us_64+0x10>)
10000bca:	6a59      	ldr	r1, [r3, #36]	@ 0x24
10000bcc:	000a      	movs	r2, r1
10000bce:	6a98      	ldr	r0, [r3, #40]	@ 0x28
10000bd0:	6a59      	ldr	r1, [r3, #36]	@ 0x24
10000bd2:	4291      	cmp	r1, r2
10000bd4:	d1fa      	bne.n	10000bcc <time_us_64+0x4>
10000bd6:	4770      	bx	lr
10000bd8:	40054000 	.word	0x40054000

10000bdc <clock_configure_int_divider>:
10000bdc:	b5f8      	push	{r3, r4, r5, r6, r7, lr}
10000bde:	46de      	mov	lr, fp
10000be0:	464e      	mov	r6, r9
10000be2:	4657      	mov	r7, sl
10000be4:	4645      	mov	r5, r8
10000be6:	b5e0      	push	{r5, r6, r7, lr}
10000be8:	468b      	mov	fp, r1
10000bea:	0005      	movs	r5, r0
10000bec:	990a      	ldr	r1, [sp, #40]	@ 0x28
10000bee:	0018      	movs	r0, r3
10000bf0:	0016      	movs	r6, r2
10000bf2:	f000 fab3 	bl	1000115c <__wrap___aeabi_uidiv>
10000bf6:	9b0a      	ldr	r3, [sp, #40]	@ 0x28
10000bf8:	006c      	lsls	r4, r5, #1
10000bfa:	021f      	lsls	r7, r3, #8
10000bfc:	4b32      	ldr	r3, [pc, #200]	@ (10000cc8 <clock_configure_int_divider+0xec>)
10000bfe:	1964      	adds	r4, r4, r5
10000c00:	469c      	mov	ip, r3
10000c02:	00a4      	lsls	r4, r4, #2
10000c04:	4464      	add	r4, ip
10000c06:	6863      	ldr	r3, [r4, #4]
10000c08:	4681      	mov	r9, r0
10000c0a:	429f      	cmp	r7, r3
10000c0c:	d900      	bls.n	10000c10 <clock_configure_int_divider+0x34>
10000c0e:	6067      	str	r7, [r4, #4]
10000c10:	1f2b      	subs	r3, r5, #4
10000c12:	b2db      	uxtb	r3, r3
10000c14:	4698      	mov	r8, r3
10000c16:	2b01      	cmp	r3, #1
10000c18:	d930      	bls.n	10000c7c <clock_configure_int_divider+0xa0>
10000c1a:	23c0      	movs	r3, #192	@ 0xc0
10000c1c:	2280      	movs	r2, #128	@ 0x80
10000c1e:	019b      	lsls	r3, r3, #6
10000c20:	18e3      	adds	r3, r4, r3
10000c22:	0112      	lsls	r2, r2, #4
10000c24:	601a      	str	r2, [r3, #0]
10000c26:	4b29      	ldr	r3, [pc, #164]	@ (10000ccc <clock_configure_int_divider+0xf0>)
10000c28:	00ad      	lsls	r5, r5, #2
10000c2a:	5959      	ldr	r1, [r3, r5]
10000c2c:	469a      	mov	sl, r3
10000c2e:	2900      	cmp	r1, #0
10000c30:	d11b      	bne.n	10000c6a <clock_configure_int_divider+0x8e>
10000c32:	0173      	lsls	r3, r6, #5
10000c34:	26e0      	movs	r6, #224	@ 0xe0
10000c36:	6822      	ldr	r2, [r4, #0]
10000c38:	4053      	eors	r3, r2
10000c3a:	401e      	ands	r6, r3
10000c3c:	2380      	movs	r3, #128	@ 0x80
10000c3e:	4642      	mov	r2, r8
10000c40:	015b      	lsls	r3, r3, #5
10000c42:	18e3      	adds	r3, r4, r3
10000c44:	601e      	str	r6, [r3, #0]
10000c46:	2a01      	cmp	r2, #1
10000c48:	d930      	bls.n	10000cac <clock_configure_int_divider+0xd0>
10000c4a:	2380      	movs	r3, #128	@ 0x80
10000c4c:	2280      	movs	r2, #128	@ 0x80
10000c4e:	019b      	lsls	r3, r3, #6
10000c50:	18e3      	adds	r3, r4, r3
10000c52:	0112      	lsls	r2, r2, #4
10000c54:	601a      	str	r2, [r3, #0]
10000c56:	4653      	mov	r3, sl
10000c58:	464a      	mov	r2, r9
10000c5a:	6067      	str	r7, [r4, #4]
10000c5c:	515a      	str	r2, [r3, r5]
10000c5e:	bcf0      	pop	{r4, r5, r6, r7}
10000c60:	46bb      	mov	fp, r7
10000c62:	46b2      	mov	sl, r6
10000c64:	46a9      	mov	r9, r5
10000c66:	46a0      	mov	r8, r4
10000c68:	bdf8      	pop	{r3, r4, r5, r6, r7, pc}
10000c6a:	6958      	ldr	r0, [r3, #20]
10000c6c:	f000 fa76 	bl	1000115c <__wrap___aeabi_uidiv>
10000c70:	3001      	adds	r0, #1
10000c72:	0043      	lsls	r3, r0, #1
10000c74:	181b      	adds	r3, r3, r0
10000c76:	3b03      	subs	r3, #3
10000c78:	d2fd      	bcs.n	10000c76 <clock_configure_int_divider+0x9a>
10000c7a:	e7da      	b.n	10000c32 <clock_configure_int_divider+0x56>
10000c7c:	465b      	mov	r3, fp
10000c7e:	2b01      	cmp	r3, #1
10000c80:	d1cb      	bne.n	10000c1a <clock_configure_int_divider+0x3e>
10000c82:	23c0      	movs	r3, #192	@ 0xc0
10000c84:	2203      	movs	r2, #3
10000c86:	019b      	lsls	r3, r3, #6
10000c88:	18e3      	adds	r3, r4, r3
10000c8a:	601a      	str	r2, [r3, #0]
10000c8c:	3a02      	subs	r2, #2
10000c8e:	68a3      	ldr	r3, [r4, #8]
10000c90:	421a      	tst	r2, r3
10000c92:	d0fc      	beq.n	10000c8e <clock_configure_int_divider+0xb2>
10000c94:	0173      	lsls	r3, r6, #5
10000c96:	26e0      	movs	r6, #224	@ 0xe0
10000c98:	6822      	ldr	r2, [r4, #0]
10000c9a:	00ad      	lsls	r5, r5, #2
10000c9c:	4053      	eors	r3, r2
10000c9e:	401e      	ands	r6, r3
10000ca0:	2380      	movs	r3, #128	@ 0x80
10000ca2:	4a0a      	ldr	r2, [pc, #40]	@ (10000ccc <clock_configure_int_divider+0xf0>)
10000ca4:	015b      	lsls	r3, r3, #5
10000ca6:	4692      	mov	sl, r2
10000ca8:	18e3      	adds	r3, r4, r3
10000caa:	601e      	str	r6, [r3, #0]
10000cac:	465a      	mov	r2, fp
10000cae:	6821      	ldr	r1, [r4, #0]
10000cb0:	4051      	eors	r1, r2
10000cb2:	2203      	movs	r2, #3
10000cb4:	400a      	ands	r2, r1
10000cb6:	601a      	str	r2, [r3, #0]
10000cb8:	2201      	movs	r2, #1
10000cba:	465b      	mov	r3, fp
10000cbc:	409a      	lsls	r2, r3
10000cbe:	68a3      	ldr	r3, [r4, #8]
10000cc0:	421a      	tst	r2, r3
10000cc2:	d0fc      	beq.n	10000cbe <clock_configure_int_divider+0xe2>
10000cc4:	e7c1      	b.n	10000c4a <clock_configure_int_divider+0x6e>
10000cc6:	46c0      	nop			@ (mov r8, r8)
10000cc8:	40008000 	.word	0x40008000
10000ccc:	2000071c 	.word	0x2000071c

10000cd0 <clock_configure_undivided>:
10000cd0:	b5f0      	push	{r4, r5, r6, r7, lr}
10000cd2:	4646      	mov	r6, r8
10000cd4:	464f      	mov	r7, r9
10000cd6:	46d6      	mov	lr, sl
10000cd8:	b5c0      	push	{r6, r7, lr}
10000cda:	001f      	movs	r7, r3
10000cdc:	4b34      	ldr	r3, [pc, #208]	@ (10000db0 <clock_configure_undivided+0xe0>)
10000cde:	0044      	lsls	r4, r0, #1
10000ce0:	469c      	mov	ip, r3
10000ce2:	1824      	adds	r4, r4, r0
10000ce4:	00a4      	lsls	r4, r4, #2
10000ce6:	4464      	add	r4, ip
10000ce8:	6863      	ldr	r3, [r4, #4]
10000cea:	4688      	mov	r8, r1
10000cec:	0016      	movs	r6, r2
10000cee:	2bff      	cmp	r3, #255	@ 0xff
10000cf0:	d802      	bhi.n	10000cf8 <clock_configure_undivided+0x28>
10000cf2:	2380      	movs	r3, #128	@ 0x80
10000cf4:	005b      	lsls	r3, r3, #1
10000cf6:	6063      	str	r3, [r4, #4]
10000cf8:	1f03      	subs	r3, r0, #4
10000cfa:	b2db      	uxtb	r3, r3
10000cfc:	469a      	mov	sl, r3
10000cfe:	2b01      	cmp	r3, #1
10000d00:	d930      	bls.n	10000d64 <clock_configure_undivided+0x94>
10000d02:	23c0      	movs	r3, #192	@ 0xc0
10000d04:	2280      	movs	r2, #128	@ 0x80
10000d06:	019b      	lsls	r3, r3, #6
10000d08:	18e3      	adds	r3, r4, r3
10000d0a:	0112      	lsls	r2, r2, #4
10000d0c:	601a      	str	r2, [r3, #0]
10000d0e:	4b29      	ldr	r3, [pc, #164]	@ (10000db4 <clock_configure_undivided+0xe4>)
10000d10:	0085      	lsls	r5, r0, #2
10000d12:	5959      	ldr	r1, [r3, r5]
10000d14:	4699      	mov	r9, r3
10000d16:	2900      	cmp	r1, #0
10000d18:	d11b      	bne.n	10000d52 <clock_configure_undivided+0x82>
10000d1a:	0173      	lsls	r3, r6, #5
10000d1c:	26e0      	movs	r6, #224	@ 0xe0
10000d1e:	6822      	ldr	r2, [r4, #0]
10000d20:	4053      	eors	r3, r2
10000d22:	401e      	ands	r6, r3
10000d24:	2380      	movs	r3, #128	@ 0x80
10000d26:	4652      	mov	r2, sl
10000d28:	015b      	lsls	r3, r3, #5
10000d2a:	18e3      	adds	r3, r4, r3
10000d2c:	601e      	str	r6, [r3, #0]
10000d2e:	2a01      	cmp	r2, #1
10000d30:	d930      	bls.n	10000d94 <clock_configure_undivided+0xc4>
10000d32:	2380      	movs	r3, #128	@ 0x80
10000d34:	2280      	movs	r2, #128	@ 0x80
10000d36:	019b      	lsls	r3, r3, #6
10000d38:	18e3      	adds	r3, r4, r3
10000d3a:	0112      	lsls	r2, r2, #4
10000d3c:	601a      	str	r2, [r3, #0]
10000d3e:	2380      	movs	r3, #128	@ 0x80
10000d40:	005b      	lsls	r3, r3, #1
10000d42:	6063      	str	r3, [r4, #4]
10000d44:	464b      	mov	r3, r9
10000d46:	515f      	str	r7, [r3, r5]
10000d48:	bce0      	pop	{r5, r6, r7}
10000d4a:	46ba      	mov	sl, r7
10000d4c:	46b1      	mov	r9, r6
10000d4e:	46a8      	mov	r8, r5
10000d50:	bdf0      	pop	{r4, r5, r6, r7, pc}
10000d52:	6958      	ldr	r0, [r3, #20]
10000d54:	f000 fa02 	bl	1000115c <__wrap___aeabi_uidiv>
10000d58:	3001      	adds	r0, #1
10000d5a:	0043      	lsls	r3, r0, #1
10000d5c:	181b      	adds	r3, r3, r0
10000d5e:	3b03      	subs	r3, #3
10000d60:	d2fd      	bcs.n	10000d5e <clock_configure_undivided+0x8e>
10000d62:	e7da      	b.n	10000d1a <clock_configure_undivided+0x4a>
10000d64:	4643      	mov	r3, r8
10000d66:	2b01      	cmp	r3, #1
10000d68:	d1cb      	bne.n	10000d02 <clock_configure_undivided+0x32>
10000d6a:	23c0      	movs	r3, #192	@ 0xc0
10000d6c:	2203      	movs	r2, #3
10000d6e:	019b      	lsls	r3, r3, #6
10000d70:	18e3      	adds	r3, r4, r3
10000d72:	601a      	str	r2, [r3, #0]
10000d74:	3a02      	subs	r2, #2
10000d76:	68a3      	ldr	r3, [r4, #8]
10000d78:	421a      	tst	r2, r3
10000d7a:	d0fc      	beq.n	10000d76 <clock_configure_undivided+0xa6>
10000d7c:	0173      	lsls	r3, r6, #5
10000d7e:	26e0      	movs	r6, #224	@ 0xe0
10000d80:	6822      	ldr	r2, [r4, #0]
10000d82:	0085      	lsls	r5, r0, #2
10000d84:	4053      	eors	r3, r2
10000d86:	401e      	ands	r6, r3
10000d88:	2380      	movs	r3, #128	@ 0x80
10000d8a:	4a0a      	ldr	r2, [pc, #40]	@ (10000db4 <clock_configure_undivided+0xe4>)
10000d8c:	015b      	lsls	r3, r3, #5
10000d8e:	4691      	mov	r9, r2
10000d90:	18e3      	adds	r3, r4, r3
10000d92:	601e      	str	r6, [r3, #0]
10000d94:	4642      	mov	r2, r8
10000d96:	6821      	ldr	r1, [r4, #0]
10000d98:	4051      	eors	r1, r2
10000d9a:	2203      	movs	r2, #3
10000d9c:	400a      	ands	r2, r1
10000d9e:	601a      	str	r2, [r3, #0]
10000da0:	2301      	movs	r3, #1
10000da2:	4642      	mov	r2, r8
10000da4:	4093      	lsls	r3, r2
10000da6:	68a2      	ldr	r2, [r4, #8]
10000da8:	4213      	tst	r3, r2
10000daa:	d0fc      	beq.n	10000da6 <clock_configure_undivided+0xd6>
10000dac:	e7c1      	b.n	10000d32 <clock_configure_undivided+0x62>
10000dae:	46c0      	nop			@ (mov r8, r8)
10000db0:	40008000 	.word	0x40008000
10000db4:	2000071c 	.word	0x2000071c

10000db8 <clock_get_hz>:
10000db8:	4b01      	ldr	r3, [pc, #4]	@ (10000dc0 <clock_get_hz+0x8>)
10000dba:	0080      	lsls	r0, r0, #2
10000dbc:	58c0      	ldr	r0, [r0, r3]
10000dbe:	4770      	bx	lr
10000dc0:	2000071c 	.word	0x2000071c

10000dc4 <pll_init>:
10000dc4:	b5f8      	push	{r3, r4, r5, r6, r7, lr}
10000dc6:	0004      	movs	r4, r0
10000dc8:	4821      	ldr	r0, [pc, #132]	@ (10000e50 <pll_init+0x8c>)
10000dca:	001e      	movs	r6, r3
10000dcc:	0017      	movs	r7, r2
10000dce:	000d      	movs	r5, r1
10000dd0:	f000 f9c4 	bl	1000115c <__wrap___aeabi_uidiv>
10000dd4:	0001      	movs	r1, r0
10000dd6:	0038      	movs	r0, r7
10000dd8:	f000 f9c0 	bl	1000115c <__wrap___aeabi_uidiv>
10000ddc:	9b06      	ldr	r3, [sp, #24]
10000dde:	0436      	lsls	r6, r6, #16
10000de0:	031b      	lsls	r3, r3, #12
10000de2:	431e      	orrs	r6, r3
10000de4:	6823      	ldr	r3, [r4, #0]
10000de6:	2b00      	cmp	r3, #0
10000de8:	db20      	blt.n	10000e2c <pll_init+0x68>
10000dea:	4b1a      	ldr	r3, [pc, #104]	@ (10000e54 <pll_init+0x90>)
10000dec:	491a      	ldr	r1, [pc, #104]	@ (10000e58 <pll_init+0x94>)
10000dee:	18e3      	adds	r3, r4, r3
10000df0:	1e5a      	subs	r2, r3, #1
10000df2:	4193      	sbcs	r3, r2
10000df4:	2280      	movs	r2, #128	@ 0x80
10000df6:	0192      	lsls	r2, r2, #6
10000df8:	4694      	mov	ip, r2
10000dfa:	425b      	negs	r3, r3
10000dfc:	0b1b      	lsrs	r3, r3, #12
10000dfe:	4a17      	ldr	r2, [pc, #92]	@ (10000e5c <pll_init+0x98>)
10000e00:	031b      	lsls	r3, r3, #12
10000e02:	4463      	add	r3, ip
10000e04:	6013      	str	r3, [r2, #0]
10000e06:	4a16      	ldr	r2, [pc, #88]	@ (10000e60 <pll_init+0x9c>)
10000e08:	6013      	str	r3, [r2, #0]
10000e0a:	001f      	movs	r7, r3
10000e0c:	680a      	ldr	r2, [r1, #0]
10000e0e:	4397      	bics	r7, r2
10000e10:	d1fb      	bne.n	10000e0a <pll_init+0x46>
10000e12:	4b14      	ldr	r3, [pc, #80]	@ (10000e64 <pll_init+0xa0>)
10000e14:	6025      	str	r5, [r4, #0]
10000e16:	18e2      	adds	r2, r4, r3
10000e18:	2321      	movs	r3, #33	@ 0x21
10000e1a:	60a0      	str	r0, [r4, #8]
10000e1c:	6013      	str	r3, [r2, #0]
10000e1e:	6823      	ldr	r3, [r4, #0]
10000e20:	2b00      	cmp	r3, #0
10000e22:	dafc      	bge.n	10000e1e <pll_init+0x5a>
10000e24:	2308      	movs	r3, #8
10000e26:	60e6      	str	r6, [r4, #12]
10000e28:	6013      	str	r3, [r2, #0]
10000e2a:	bdf8      	pop	{r3, r4, r5, r6, r7, pc}
10000e2c:	233f      	movs	r3, #63	@ 0x3f
10000e2e:	6822      	ldr	r2, [r4, #0]
10000e30:	4013      	ands	r3, r2
10000e32:	42ab      	cmp	r3, r5
10000e34:	d1d9      	bne.n	10000dea <pll_init+0x26>
10000e36:	68a3      	ldr	r3, [r4, #8]
10000e38:	051b      	lsls	r3, r3, #20
10000e3a:	0d1b      	lsrs	r3, r3, #20
10000e3c:	4283      	cmp	r3, r0
10000e3e:	d1d4      	bne.n	10000dea <pll_init+0x26>
10000e40:	22ee      	movs	r2, #238	@ 0xee
10000e42:	68e3      	ldr	r3, [r4, #12]
10000e44:	02d2      	lsls	r2, r2, #11
10000e46:	4013      	ands	r3, r2
10000e48:	42b3      	cmp	r3, r6
10000e4a:	d1ce      	bne.n	10000dea <pll_init+0x26>
10000e4c:	e7ed      	b.n	10000e2a <pll_init+0x66>
10000e4e:	46c0      	nop			@ (mov r8, r8)
10000e50:	00b71b00 	.word	0x00b71b00
10000e54:	bffd4000 	.word	0xbffd4000
10000e58:	4000c008 	.word	0x4000c008
10000e5c:	4000e000 	.word	0x4000e000
10000e60:	4000f000 	.word	0x4000f000
10000e64:	00003004 	.word	0x00003004

10000e68 <tick_start>:
10000e68:	2380      	movs	r3, #128	@ 0x80
10000e6a:	4a02      	ldr	r2, [pc, #8]	@ (10000e74 <tick_start+0xc>)
10000e6c:	009b      	lsls	r3, r3, #2
10000e6e:	430b      	orrs	r3, r1
10000e70:	62d3      	str	r3, [r2, #44]	@ 0x2c
10000e72:	4770      	bx	lr
10000e74:	40058000 	.word	0x40058000

10000e78 <rom_func_lookup>:
10000e78:	2300      	movs	r3, #0
10000e7a:	b510      	push	{r4, lr}
10000e7c:	0001      	movs	r1, r0
10000e7e:	8a98      	ldrh	r0, [r3, #20]
10000e80:	8b1b      	ldrh	r3, [r3, #24]
10000e82:	4798      	blx	r3
10000e84:	bd10      	pop	{r4, pc}
10000e86:	46c0      	nop			@ (mov r8, r8)

10000e88 <rom_data_lookup>:
10000e88:	2316      	movs	r3, #22
10000e8a:	b510      	push	{r4, lr}
10000e8c:	0001      	movs	r1, r0
10000e8e:	8818      	ldrh	r0, [r3, #0]
10000e90:	3302      	adds	r3, #2
10000e92:	881b      	ldrh	r3, [r3, #0]
10000e94:	4798      	blx	r3
10000e96:	bd10      	pop	{r4, pc}

10000e98 <rom_funcs_lookup>:
10000e98:	b5f8      	push	{r3, r4, r5, r6, r7, lr}
10000e9a:	4647      	mov	r7, r8
10000e9c:	46ce      	mov	lr, r9
10000e9e:	b580      	push	{r7, lr}
10000ea0:	1e0f      	subs	r7, r1, #0
10000ea2:	d018      	beq.n	10000ed6 <rom_funcs_lookup+0x3e>
10000ea4:	2314      	movs	r3, #20
10000ea6:	4699      	mov	r9, r3
10000ea8:	3304      	adds	r3, #4
10000eaa:	0004      	movs	r4, r0
10000eac:	2500      	movs	r5, #0
10000eae:	2601      	movs	r6, #1
10000eb0:	4698      	mov	r8, r3
10000eb2:	464b      	mov	r3, r9
10000eb4:	8818      	ldrh	r0, [r3, #0]
10000eb6:	4643      	mov	r3, r8
10000eb8:	6821      	ldr	r1, [r4, #0]
10000eba:	881b      	ldrh	r3, [r3, #0]
10000ebc:	4798      	blx	r3
10000ebe:	c401      	stmia	r4!, {r0}
10000ec0:	1e43      	subs	r3, r0, #1
10000ec2:	4198      	sbcs	r0, r3
10000ec4:	3501      	adds	r5, #1
10000ec6:	4006      	ands	r6, r0
10000ec8:	42af      	cmp	r7, r5
10000eca:	d1f2      	bne.n	10000eb2 <rom_funcs_lookup+0x1a>
10000ecc:	0030      	movs	r0, r6
10000ece:	bcc0      	pop	{r6, r7}
10000ed0:	46b9      	mov	r9, r7
10000ed2:	46b0      	mov	r8, r6
10000ed4:	bdf8      	pop	{r3, r4, r5, r6, r7, pc}
10000ed6:	2601      	movs	r6, #1
10000ed8:	e7f8      	b.n	10000ecc <rom_funcs_lookup+0x34>
10000eda:	46c0      	nop			@ (mov r8, r8)

10000edc <xosc_init>:
10000edc:	23aa      	movs	r3, #170	@ 0xaa
10000ede:	4a06      	ldr	r2, [pc, #24]	@ (10000ef8 <xosc_init+0x1c>)
10000ee0:	011b      	lsls	r3, r3, #4
10000ee2:	6013      	str	r3, [r2, #0]
10000ee4:	238d      	movs	r3, #141	@ 0x8d
10000ee6:	005b      	lsls	r3, r3, #1
10000ee8:	60d3      	str	r3, [r2, #12]
10000eea:	4904      	ldr	r1, [pc, #16]	@ (10000efc <xosc_init+0x20>)
10000eec:	4b04      	ldr	r3, [pc, #16]	@ (10000f00 <xosc_init+0x24>)
10000eee:	6019      	str	r1, [r3, #0]
10000ef0:	6853      	ldr	r3, [r2, #4]
10000ef2:	2b00      	cmp	r3, #0
10000ef4:	dafc      	bge.n	10000ef0 <xosc_init+0x14>
10000ef6:	4770      	bx	lr
10000ef8:	40024000 	.word	0x40024000
10000efc:	00fab000 	.word	0x00fab000
10000f00:	40026000 	.word	0x40026000

10000f04 <first_per_core_initializer>:
10000f04:	4770      	bx	lr
10000f06:	46c0      	nop			@ (mov r8, r8)

10000f08 <hard_assertion_failure>:
10000f08:	b510      	push	{r4, lr}
10000f0a:	4801      	ldr	r0, [pc, #4]	@ (10000f10 <hard_assertion_failure+0x8>)
10000f0c:	f7ff fa5a 	bl	100003c4 <panic>
10000f10:	100017fc 	.word	0x100017fc

10000f14 <runtime_run_initializers>:
10000f14:	b570      	push	{r4, r5, r6, lr}
10000f16:	4d07      	ldr	r5, [pc, #28]	@ (10000f34 <runtime_run_initializers+0x20>)
10000f18:	4e07      	ldr	r6, [pc, #28]	@ (10000f38 <runtime_run_initializers+0x24>)
10000f1a:	42b5      	cmp	r5, r6
10000f1c:	d209      	bcs.n	10000f32 <runtime_run_initializers+0x1e>
10000f1e:	2400      	movs	r4, #0
10000f20:	3e01      	subs	r6, #1
10000f22:	1b76      	subs	r6, r6, r5
10000f24:	08b6      	lsrs	r6, r6, #2
10000f26:	cd08      	ldmia	r5!, {r3}
10000f28:	4798      	blx	r3
10000f2a:	0023      	movs	r3, r4
10000f2c:	3401      	adds	r4, #1
10000f2e:	42b3      	cmp	r3, r6
10000f30:	d1f9      	bne.n	10000f26 <runtime_run_initializers+0x12>
10000f32:	bd70      	pop	{r4, r5, r6, pc}
10000f34:	10001780 	.word	0x10001780
10000f38:	100017bc 	.word	0x100017bc

10000f3c <runtime_init_early_resets>:
10000f3c:	4b05      	ldr	r3, [pc, #20]	@ (10000f54 <runtime_init_early_resets+0x18>)
10000f3e:	4a06      	ldr	r2, [pc, #24]	@ (10000f58 <runtime_init_early_resets+0x1c>)
10000f40:	4906      	ldr	r1, [pc, #24]	@ (10000f5c <runtime_init_early_resets+0x20>)
10000f42:	601a      	str	r2, [r3, #0]
10000f44:	4a06      	ldr	r2, [pc, #24]	@ (10000f60 <runtime_init_early_resets+0x24>)
10000f46:	4b07      	ldr	r3, [pc, #28]	@ (10000f64 <runtime_init_early_resets+0x28>)
10000f48:	601a      	str	r2, [r3, #0]
10000f4a:	0010      	movs	r0, r2
10000f4c:	680b      	ldr	r3, [r1, #0]
10000f4e:	4398      	bics	r0, r3
10000f50:	d1fb      	bne.n	10000f4a <runtime_init_early_resets+0xe>
10000f52:	4770      	bx	lr
10000f54:	4000e000 	.word	0x4000e000
10000f58:	fefbcdbf 	.word	0xfefbcdbf
10000f5c:	4000c008 	.word	0x4000c008
10000f60:	003c7ffe 	.word	0x003c7ffe
10000f64:	4000f000 	.word	0x4000f000

10000f68 <runtime_init_usb_power_down>:
10000f68:	4b04      	ldr	r3, [pc, #16]	@ (10000f7c <runtime_init_usb_power_down+0x14>)
10000f6a:	6cdb      	ldr	r3, [r3, #76]	@ 0x4c
10000f6c:	2b00      	cmp	r3, #0
10000f6e:	d103      	bne.n	10000f78 <runtime_init_usb_power_down+0x10>
10000f70:	2280      	movs	r2, #128	@ 0x80
10000f72:	4b03      	ldr	r3, [pc, #12]	@ (10000f80 <runtime_init_usb_power_down+0x18>)
10000f74:	02d2      	lsls	r2, r2, #11
10000f76:	601a      	str	r2, [r3, #0]
10000f78:	4770      	bx	lr
10000f7a:	46c0      	nop			@ (mov r8, r8)
10000f7c:	50110000 	.word	0x50110000
10000f80:	5011204c 	.word	0x5011204c

10000f84 <runtime_init_post_clock_resets>:
10000f84:	4a04      	ldr	r2, [pc, #16]	@ (10000f98 <runtime_init_post_clock_resets+0x14>)
10000f86:	4b05      	ldr	r3, [pc, #20]	@ (10000f9c <runtime_init_post_clock_resets+0x18>)
10000f88:	601a      	str	r2, [r3, #0]
10000f8a:	4a05      	ldr	r2, [pc, #20]	@ (10000fa0 <runtime_init_post_clock_resets+0x1c>)
10000f8c:	6813      	ldr	r3, [r2, #0]
10000f8e:	01db      	lsls	r3, r3, #7
10000f90:	3380      	adds	r3, #128	@ 0x80
10000f92:	d1fb      	bne.n	10000f8c <runtime_init_post_clock_resets+0x8>
10000f94:	4770      	bx	lr
10000f96:	46c0      	nop			@ (mov r8, r8)
10000f98:	01ffffff 	.word	0x01ffffff
10000f9c:	4000f000 	.word	0x4000f000
10000fa0:	4000c008 	.word	0x4000c008

10000fa4 <runtime_init_rp2040_gpio_ie_disable>:
10000fa4:	2240      	movs	r2, #64	@ 0x40
10000fa6:	4b03      	ldr	r3, [pc, #12]	@ (10000fb4 <runtime_init_rp2040_gpio_ie_disable+0x10>)
10000fa8:	679a      	str	r2, [r3, #120]	@ 0x78
10000faa:	675a      	str	r2, [r3, #116]	@ 0x74
10000fac:	671a      	str	r2, [r3, #112]	@ 0x70
10000fae:	66da      	str	r2, [r3, #108]	@ 0x6c
10000fb0:	4770      	bx	lr
10000fb2:	46c0      	nop			@ (mov r8, r8)
10000fb4:	4001f000 	.word	0x4001f000

10000fb8 <runtime_init_spin_locks_reset>:
10000fb8:	b510      	push	{r4, lr}
10000fba:	f7ff fa49 	bl	10000450 <spin_locks_reset>
10000fbe:	bd10      	pop	{r4, pc}

10000fc0 <runtime_init_install_ram_vector_table>:
10000fc0:	b5f8      	push	{r3, r4, r5, r6, r7, lr}
10000fc2:	4927      	ldr	r1, [pc, #156]	@ (10001060 <runtime_init_install_ram_vector_table+0xa0>)
10000fc4:	4c27      	ldr	r4, [pc, #156]	@ (10001064 <runtime_init_install_ram_vector_table+0xa4>)
10000fc6:	4d28      	ldr	r5, [pc, #160]	@ (10001068 <runtime_init_install_ram_vector_table+0xa8>)
10000fc8:	1a64      	subs	r4, r4, r1
10000fca:	10a6      	asrs	r6, r4, #2
10000fcc:	0032      	movs	r2, r6
10000fce:	2e30      	cmp	r6, #48	@ 0x30
10000fd0:	d900      	bls.n	10000fd4 <runtime_init_install_ram_vector_table+0x14>
10000fd2:	2230      	movs	r2, #48	@ 0x30
10000fd4:	0028      	movs	r0, r5
10000fd6:	0092      	lsls	r2, r2, #2
10000fd8:	f000 f99e 	bl	10001318 <__wrap___aeabi_memcpy>
10000fdc:	2cbc      	cmp	r4, #188	@ 0xbc
10000fde:	d83b      	bhi.n	10001058 <runtime_init_install_ram_vector_table+0x98>
10000fe0:	2030      	movs	r0, #48	@ 0x30
10000fe2:	232f      	movs	r3, #47	@ 0x2f
10000fe4:	192c      	adds	r4, r5, r4
10000fe6:	0764      	lsls	r4, r4, #29
10000fe8:	4a20      	ldr	r2, [pc, #128]	@ (1000106c <runtime_init_install_ram_vector_table+0xac>)
10000fea:	1b80      	subs	r0, r0, r6
10000fec:	0fe4      	lsrs	r4, r4, #31
10000fee:	1b9b      	subs	r3, r3, r6
10000ff0:	2b05      	cmp	r3, #5
10000ff2:	d916      	bls.n	10001022 <runtime_init_install_ram_vector_table+0x62>
10000ff4:	0037      	movs	r7, r6
10000ff6:	2c00      	cmp	r4, #0
10000ff8:	d002      	beq.n	10001000 <runtime_init_install_ram_vector_table+0x40>
10000ffa:	00b3      	lsls	r3, r6, #2
10000ffc:	1c77      	adds	r7, r6, #1
10000ffe:	50ea      	str	r2, [r5, r3]
10001000:	1b00      	subs	r0, r0, r4
10001002:	1933      	adds	r3, r6, r4
10001004:	009b      	lsls	r3, r3, #2
10001006:	0841      	lsrs	r1, r0, #1
10001008:	18eb      	adds	r3, r5, r3
1000100a:	00c9      	lsls	r1, r1, #3
1000100c:	18c9      	adds	r1, r1, r3
1000100e:	601a      	str	r2, [r3, #0]
10001010:	605a      	str	r2, [r3, #4]
10001012:	3308      	adds	r3, #8
10001014:	4299      	cmp	r1, r3
10001016:	d1fa      	bne.n	1000100e <runtime_init_install_ram_vector_table+0x4e>
10001018:	2301      	movs	r3, #1
1000101a:	4203      	tst	r3, r0
1000101c:	d01c      	beq.n	10001058 <runtime_init_install_ram_vector_table+0x98>
1000101e:	4398      	bics	r0, r3
10001020:	19c6      	adds	r6, r0, r7
10001022:	00b3      	lsls	r3, r6, #2
10001024:	50ea      	str	r2, [r5, r3]
10001026:	1c73      	adds	r3, r6, #1
10001028:	2e2f      	cmp	r6, #47	@ 0x2f
1000102a:	d015      	beq.n	10001058 <runtime_init_install_ram_vector_table+0x98>
1000102c:	009b      	lsls	r3, r3, #2
1000102e:	50ea      	str	r2, [r5, r3]
10001030:	1cb3      	adds	r3, r6, #2
10001032:	2e2e      	cmp	r6, #46	@ 0x2e
10001034:	d010      	beq.n	10001058 <runtime_init_install_ram_vector_table+0x98>
10001036:	009b      	lsls	r3, r3, #2
10001038:	50ea      	str	r2, [r5, r3]
1000103a:	1cf3      	adds	r3, r6, #3
1000103c:	2e2d      	cmp	r6, #45	@ 0x2d
1000103e:	d00b      	beq.n	10001058 <runtime_init_install_ram_vector_table+0x98>
10001040:	009b      	lsls	r3, r3, #2
10001042:	50ea      	str	r2, [r5, r3]
10001044:	1d33      	adds	r3, r6, #4
10001046:	2e2c      	cmp	r6, #44	@ 0x2c
10001048:	d006      	beq.n	10001058 <runtime_init_install_ram_vector_table+0x98>
1000104a:	009b      	lsls	r3, r3, #2
1000104c:	50ea      	str	r2, [r5, r3]
1000104e:	1d73      	adds	r3, r6, #5
10001050:	2e2b      	cmp	r6, #43	@ 0x2b
10001052:	d001      	beq.n	10001058 <runtime_init_install_ram_vector_table+0x98>
10001054:	009b      	lsls	r3, r3, #2
10001056:	50ea      	str	r2, [r5, r3]
10001058:	4b05      	ldr	r3, [pc, #20]	@ (10001070 <runtime_init_install_ram_vector_table+0xb0>)
1000105a:	609d      	str	r5, [r3, #8]
1000105c:	bdf8      	pop	{r3, r4, r5, r6, r7, pc}
1000105e:	46c0      	nop			@ (mov r8, r8)
10001060:	10000100 	.word	0x10000100
10001064:	100001c0 	.word	0x100001c0
10001068:	20000000 	.word	0x20000000
1000106c:	100001c1 	.word	0x100001c1
10001070:	e000ed00 	.word	0xe000ed00

10001074 <runtime_init_clocks>:
10001074:	2300      	movs	r3, #0
10001076:	b510      	push	{r4, lr}
10001078:	4c29      	ldr	r4, [pc, #164]	@ (10001120 <runtime_init_clocks+0xac>)
1000107a:	b082      	sub	sp, #8
1000107c:	67a3      	str	r3, [r4, #120]	@ 0x78
1000107e:	f7ff ff2d 	bl	10000edc <xosc_init>
10001082:	2201      	movs	r2, #1
10001084:	4b27      	ldr	r3, [pc, #156]	@ (10001124 <runtime_init_clocks+0xb0>)
10001086:	601a      	str	r2, [r3, #0]
10001088:	6c63      	ldr	r3, [r4, #68]	@ 0x44
1000108a:	2b01      	cmp	r3, #1
1000108c:	d1fc      	bne.n	10001088 <runtime_init_clocks+0x14>
1000108e:	2203      	movs	r2, #3
10001090:	4b25      	ldr	r3, [pc, #148]	@ (10001128 <runtime_init_clocks+0xb4>)
10001092:	601a      	str	r2, [r3, #0]
10001094:	4a22      	ldr	r2, [pc, #136]	@ (10001120 <runtime_init_clocks+0xac>)
10001096:	6b93      	ldr	r3, [r2, #56]	@ 0x38
10001098:	2b01      	cmp	r3, #1
1000109a:	d1fc      	bne.n	10001096 <runtime_init_clocks+0x22>
1000109c:	3301      	adds	r3, #1
1000109e:	9300      	str	r3, [sp, #0]
100010a0:	2101      	movs	r1, #1
100010a2:	4a22      	ldr	r2, [pc, #136]	@ (1000112c <runtime_init_clocks+0xb8>)
100010a4:	4822      	ldr	r0, [pc, #136]	@ (10001130 <runtime_init_clocks+0xbc>)
100010a6:	3304      	adds	r3, #4
100010a8:	f7ff fe8c 	bl	10000dc4 <pll_init>
100010ac:	2305      	movs	r3, #5
100010ae:	2101      	movs	r1, #1
100010b0:	9300      	str	r3, [sp, #0]
100010b2:	4a20      	ldr	r2, [pc, #128]	@ (10001134 <runtime_init_clocks+0xc0>)
100010b4:	4820      	ldr	r0, [pc, #128]	@ (10001138 <runtime_init_clocks+0xc4>)
100010b6:	f7ff fe85 	bl	10000dc4 <pll_init>
100010ba:	2200      	movs	r2, #0
100010bc:	2102      	movs	r1, #2
100010be:	2004      	movs	r0, #4
100010c0:	4b1e      	ldr	r3, [pc, #120]	@ (1000113c <runtime_init_clocks+0xc8>)
100010c2:	f7ff fe05 	bl	10000cd0 <clock_configure_undivided>
100010c6:	2200      	movs	r2, #0
100010c8:	2101      	movs	r1, #1
100010ca:	2005      	movs	r0, #5
100010cc:	4b1c      	ldr	r3, [pc, #112]	@ (10001140 <runtime_init_clocks+0xcc>)
100010ce:	f7ff fdff 	bl	10000cd0 <clock_configure_undivided>
100010d2:	2200      	movs	r2, #0
100010d4:	2100      	movs	r1, #0
100010d6:	2007      	movs	r0, #7
100010d8:	4b1a      	ldr	r3, [pc, #104]	@ (10001144 <runtime_init_clocks+0xd0>)
100010da:	f7ff fdf9 	bl	10000cd0 <clock_configure_undivided>
100010de:	2200      	movs	r2, #0
100010e0:	2100      	movs	r1, #0
100010e2:	2008      	movs	r0, #8
100010e4:	4b17      	ldr	r3, [pc, #92]	@ (10001144 <runtime_init_clocks+0xd0>)
100010e6:	f7ff fdf3 	bl	10000cd0 <clock_configure_undivided>
100010ea:	2380      	movs	r3, #128	@ 0x80
100010ec:	00db      	lsls	r3, r3, #3
100010ee:	9300      	str	r3, [sp, #0]
100010f0:	2200      	movs	r2, #0
100010f2:	2100      	movs	r1, #0
100010f4:	2009      	movs	r0, #9
100010f6:	4b13      	ldr	r3, [pc, #76]	@ (10001144 <runtime_init_clocks+0xd0>)
100010f8:	f7ff fd70 	bl	10000bdc <clock_configure_int_divider>
100010fc:	2200      	movs	r2, #0
100010fe:	4b10      	ldr	r3, [pc, #64]	@ (10001140 <runtime_init_clocks+0xcc>)
10001100:	2100      	movs	r1, #0
10001102:	2006      	movs	r0, #6
10001104:	f7ff fde4 	bl	10000cd0 <clock_configure_undivided>
10001108:	2004      	movs	r0, #4
1000110a:	f7ff fe55 	bl	10000db8 <clock_get_hz>
1000110e:	490e      	ldr	r1, [pc, #56]	@ (10001148 <runtime_init_clocks+0xd4>)
10001110:	f000 f824 	bl	1000115c <__wrap___aeabi_uidiv>
10001114:	0001      	movs	r1, r0
10001116:	2000      	movs	r0, #0
10001118:	f7ff fea6 	bl	10000e68 <tick_start>
1000111c:	b002      	add	sp, #8
1000111e:	bd10      	pop	{r4, pc}
10001120:	40008000 	.word	0x40008000
10001124:	4000b03c 	.word	0x4000b03c
10001128:	4000b030 	.word	0x4000b030
1000112c:	59682f00 	.word	0x59682f00
10001130:	40028000 	.word	0x40028000
10001134:	47868c00 	.word	0x47868c00
10001138:	4002c000 	.word	0x4002c000
1000113c:	00b71b00 	.word	0x00b71b00
10001140:	07735940 	.word	0x07735940
10001144:	02dc6c00 	.word	0x02dc6c00
10001148:	000f4240 	.word	0x000f4240

1000114c <__aeabi_bits_init>:
1000114c:	4801      	ldr	r0, [pc, #4]	@ (10001154 <__aeabi_bits_init+0x8>)
1000114e:	2104      	movs	r1, #4
10001150:	4b01      	ldr	r3, [pc, #4]	@ (10001158 <__aeabi_bits_init+0xc>)
10001152:	4718      	bx	r3
10001154:	200001c0 	.word	0x200001c0
10001158:	10000e99 	.word	0x10000e99

1000115c <__wrap___aeabi_uidiv>:
1000115c:	4a11      	ldr	r2, [pc, #68]	@ (100011a4 <divmod_u32u32_savestate+0x18>)
1000115e:	6f93      	ldr	r3, [r2, #120]	@ 0x78
10001160:	089b      	lsrs	r3, r3, #2
10001162:	d213      	bcs.n	1000118c <divmod_u32u32_savestate>

10001164 <divmod_u32u32_unsafe>:
10001164:	6610      	str	r0, [r2, #96]	@ 0x60
10001166:	6651      	str	r1, [r2, #100]	@ 0x64
10001168:	2900      	cmp	r1, #0
1000116a:	d005      	beq.n	10001178 <divmod_u32u32_unsafe+0x14>
1000116c:	e7ff      	b.n	1000116e <divmod_u32u32_unsafe+0xa>
1000116e:	e7ff      	b.n	10001170 <divmod_u32u32_unsafe+0xc>
10001170:	e7ff      	b.n	10001172 <divmod_u32u32_unsafe+0xe>
10001172:	6f51      	ldr	r1, [r2, #116]	@ 0x74
10001174:	6f10      	ldr	r0, [r2, #112]	@ 0x70
10001176:	4770      	bx	lr
10001178:	b504      	push	{r2, lr}
1000117a:	2800      	cmp	r0, #0
1000117c:	d001      	beq.n	10001182 <divmod_u32u32_unsafe+0x1e>
1000117e:	2000      	movs	r0, #0
10001180:	43c0      	mvns	r0, r0
10001182:	f000 faed 	bl	10001760 <____aeabi_idiv0_veneer>
10001186:	2100      	movs	r1, #0
10001188:	bd04      	pop	{r2, pc}
1000118a:	46c0      	nop			@ (mov r8, r8)

1000118c <divmod_u32u32_savestate>:
1000118c:	b5f0      	push	{r4, r5, r6, r7, lr}
1000118e:	6e14      	ldr	r4, [r2, #96]	@ 0x60
10001190:	6e55      	ldr	r5, [r2, #100]	@ 0x64
10001192:	6f57      	ldr	r7, [r2, #116]	@ 0x74
10001194:	6f16      	ldr	r6, [r2, #112]	@ 0x70
10001196:	f7ff ffe5 	bl	10001164 <divmod_u32u32_unsafe>
1000119a:	6614      	str	r4, [r2, #96]	@ 0x60
1000119c:	6655      	str	r5, [r2, #100]	@ 0x64
1000119e:	6757      	str	r7, [r2, #116]	@ 0x74
100011a0:	6716      	str	r6, [r2, #112]	@ 0x70
100011a2:	bdf0      	pop	{r4, r5, r6, r7, pc}
100011a4:	d0000000 	.word	0xd0000000

100011a8 <__aeabi_double_init>:
100011a8:	2313      	movs	r3, #19
100011aa:	b570      	push	{r4, r5, r6, lr}
100011ac:	781d      	ldrb	r5, [r3, #0]
100011ae:	2d01      	cmp	r5, #1
100011b0:	d019      	beq.n	100011e6 <__aeabi_double_init+0x3e>
100011b2:	dd14      	ble.n	100011de <__aeabi_double_init+0x36>
100011b4:	481f      	ldr	r0, [pc, #124]	@ (10001234 <__aeabi_double_init+0x8c>)
100011b6:	f7ff fe67 	bl	10000e88 <rom_data_lookup>
100011ba:	0006      	movs	r6, r0
100011bc:	481e      	ldr	r0, [pc, #120]	@ (10001238 <__aeabi_double_init+0x90>)
100011be:	f7ff fe63 	bl	10000e88 <rom_data_lookup>
100011c2:	4c1e      	ldr	r4, [pc, #120]	@ (1000123c <__aeabi_double_init+0x94>)
100011c4:	2280      	movs	r2, #128	@ 0x80
100011c6:	0031      	movs	r1, r6
100011c8:	0020      	movs	r0, r4
100011ca:	f000 f8a5 	bl	10001318 <__wrap___aeabi_memcpy>
100011ce:	2d02      	cmp	r5, #2
100011d0:	d02d      	beq.n	1000122e <__aeabi_double_init+0x86>
100011d2:	481b      	ldr	r0, [pc, #108]	@ (10001240 <__aeabi_double_init+0x98>)
100011d4:	f7ff fe50 	bl	10000e78 <rom_func_lookup>
100011d8:	4b1a      	ldr	r3, [pc, #104]	@ (10001244 <__aeabi_double_init+0x9c>)
100011da:	6018      	str	r0, [r3, #0]
100011dc:	bd70      	pop	{r4, r5, r6, pc}
100011de:	4b1a      	ldr	r3, [pc, #104]	@ (10001248 <__aeabi_double_init+0xa0>)
100011e0:	4c16      	ldr	r4, [pc, #88]	@ (1000123c <__aeabi_double_init+0x94>)
100011e2:	64a3      	str	r3, [r4, #72]	@ 0x48
100011e4:	e7f5      	b.n	100011d2 <__aeabi_double_init+0x2a>
100011e6:	4b18      	ldr	r3, [pc, #96]	@ (10001248 <__aeabi_double_init+0xa0>)
100011e8:	4c14      	ldr	r4, [pc, #80]	@ (1000123c <__aeabi_double_init+0x94>)
100011ea:	6023      	str	r3, [r4, #0]
100011ec:	6063      	str	r3, [r4, #4]
100011ee:	60a3      	str	r3, [r4, #8]
100011f0:	60e3      	str	r3, [r4, #12]
100011f2:	6123      	str	r3, [r4, #16]
100011f4:	6163      	str	r3, [r4, #20]
100011f6:	61a3      	str	r3, [r4, #24]
100011f8:	61e3      	str	r3, [r4, #28]
100011fa:	6223      	str	r3, [r4, #32]
100011fc:	6263      	str	r3, [r4, #36]	@ 0x24
100011fe:	62a3      	str	r3, [r4, #40]	@ 0x28
10001200:	62e3      	str	r3, [r4, #44]	@ 0x2c
10001202:	6323      	str	r3, [r4, #48]	@ 0x30
10001204:	6363      	str	r3, [r4, #52]	@ 0x34
10001206:	63a3      	str	r3, [r4, #56]	@ 0x38
10001208:	63e3      	str	r3, [r4, #60]	@ 0x3c
1000120a:	6423      	str	r3, [r4, #64]	@ 0x40
1000120c:	6463      	str	r3, [r4, #68]	@ 0x44
1000120e:	64a3      	str	r3, [r4, #72]	@ 0x48
10001210:	64e3      	str	r3, [r4, #76]	@ 0x4c
10001212:	6523      	str	r3, [r4, #80]	@ 0x50
10001214:	6563      	str	r3, [r4, #84]	@ 0x54
10001216:	65a3      	str	r3, [r4, #88]	@ 0x58
10001218:	65e3      	str	r3, [r4, #92]	@ 0x5c
1000121a:	6623      	str	r3, [r4, #96]	@ 0x60
1000121c:	6663      	str	r3, [r4, #100]	@ 0x64
1000121e:	66a3      	str	r3, [r4, #104]	@ 0x68
10001220:	66e3      	str	r3, [r4, #108]	@ 0x6c
10001222:	6723      	str	r3, [r4, #112]	@ 0x70
10001224:	6763      	str	r3, [r4, #116]	@ 0x74
10001226:	67a3      	str	r3, [r4, #120]	@ 0x78
10001228:	67e3      	str	r3, [r4, #124]	@ 0x7c
1000122a:	64a3      	str	r3, [r4, #72]	@ 0x48
1000122c:	e7d1      	b.n	100011d2 <__aeabi_double_init+0x2a>
1000122e:	4b06      	ldr	r3, [pc, #24]	@ (10001248 <__aeabi_double_init+0xa0>)
10001230:	64a3      	str	r3, [r4, #72]	@ 0x48
10001232:	e7ce      	b.n	100011d2 <__aeabi_double_init+0x2a>
10001234:	00004453 	.word	0x00004453
10001238:	00004653 	.word	0x00004653
1000123c:	20000368 	.word	0x20000368
10001240:	0000334c 	.word	0x0000334c
10001244:	20000760 	.word	0x20000760
10001248:	1000124d 	.word	0x1000124d

1000124c <double_table_shim_on_use_helper>:
1000124c:	b507      	push	{r0, r1, r2, lr}
1000124e:	4660      	mov	r0, ip
10001250:	8801      	ldrh	r1, [r0, #0]
10001252:	0a0a      	lsrs	r2, r1, #8
10001254:	3002      	adds	r0, #2
10001256:	2adf      	cmp	r2, #223	@ 0xdf
10001258:	d1fa      	bne.n	10001250 <double_table_shim_on_use_helper+0x4>
1000125a:	b2c9      	uxtb	r1, r1
1000125c:	0882      	lsrs	r2, r0, #2
1000125e:	d304      	bcc.n	1000126a <double_table_shim_on_use_helper+0x1e>
10001260:	8802      	ldrh	r2, [r0, #0]
10001262:	8840      	ldrh	r0, [r0, #2]
10001264:	0400      	lsls	r0, r0, #16
10001266:	4310      	orrs	r0, r2
10001268:	e000      	b.n	1000126c <double_table_shim_on_use_helper+0x20>
1000126a:	6800      	ldr	r0, [r0, #0]
1000126c:	4a01      	ldr	r2, [pc, #4]	@ (10001274 <double_table_shim_on_use_helper+0x28>)
1000126e:	5050      	str	r0, [r2, r1]
10001270:	9003      	str	r0, [sp, #12]
10001272:	bd07      	pop	{r0, r1, r2, pc}
10001274:	20000368 	.word	0x20000368

10001278 <__aeabi_float_init>:
10001278:	2313      	movs	r3, #19
1000127a:	b510      	push	{r4, lr}
1000127c:	4812      	ldr	r0, [pc, #72]	@ (100012c8 <__aeabi_float_init+0x50>)
1000127e:	781c      	ldrb	r4, [r3, #0]
10001280:	f7ff fe02 	bl	10000e88 <rom_data_lookup>
10001284:	0001      	movs	r1, r0
10001286:	2c01      	cmp	r4, #1
10001288:	d00a      	beq.n	100012a0 <__aeabi_float_init+0x28>
1000128a:	dd03      	ble.n	10001294 <__aeabi_float_init+0x1c>
1000128c:	2280      	movs	r2, #128	@ 0x80
1000128e:	480f      	ldr	r0, [pc, #60]	@ (100012cc <__aeabi_float_init+0x54>)
10001290:	f000 f842 	bl	10001318 <__wrap___aeabi_memcpy>
10001294:	480e      	ldr	r0, [pc, #56]	@ (100012d0 <__aeabi_float_init+0x58>)
10001296:	f7ff fdef 	bl	10000e78 <rom_func_lookup>
1000129a:	4b0e      	ldr	r3, [pc, #56]	@ (100012d4 <__aeabi_float_init+0x5c>)
1000129c:	6018      	str	r0, [r3, #0]
1000129e:	bd10      	pop	{r4, pc}
100012a0:	4c0a      	ldr	r4, [pc, #40]	@ (100012cc <__aeabi_float_init+0x54>)
100012a2:	2254      	movs	r2, #84	@ 0x54
100012a4:	0020      	movs	r0, r4
100012a6:	f000 f837 	bl	10001318 <__wrap___aeabi_memcpy>
100012aa:	4b0b      	ldr	r3, [pc, #44]	@ (100012d8 <__aeabi_float_init+0x60>)
100012ac:	6563      	str	r3, [r4, #84]	@ 0x54
100012ae:	65a3      	str	r3, [r4, #88]	@ 0x58
100012b0:	65e3      	str	r3, [r4, #92]	@ 0x5c
100012b2:	6623      	str	r3, [r4, #96]	@ 0x60
100012b4:	6663      	str	r3, [r4, #100]	@ 0x64
100012b6:	66a3      	str	r3, [r4, #104]	@ 0x68
100012b8:	66e3      	str	r3, [r4, #108]	@ 0x6c
100012ba:	6723      	str	r3, [r4, #112]	@ 0x70
100012bc:	6763      	str	r3, [r4, #116]	@ 0x74
100012be:	67a3      	str	r3, [r4, #120]	@ 0x78
100012c0:	67e3      	str	r3, [r4, #124]	@ 0x7c
100012c2:	6223      	str	r3, [r4, #32]
100012c4:	61e3      	str	r3, [r4, #28]
100012c6:	e7e5      	b.n	10001294 <__aeabi_float_init+0x1c>
100012c8:	00004653 	.word	0x00004653
100012cc:	20000468 	.word	0x20000468
100012d0:	0000334c 	.word	0x0000334c
100012d4:	20000760 	.word	0x20000760
100012d8:	100012dd 	.word	0x100012dd

100012dc <float_table_shim_on_use_helper>:
100012dc:	b507      	push	{r0, r1, r2, lr}
100012de:	4660      	mov	r0, ip
100012e0:	8801      	ldrh	r1, [r0, #0]
100012e2:	0a0a      	lsrs	r2, r1, #8
100012e4:	3002      	adds	r0, #2
100012e6:	2adf      	cmp	r2, #223	@ 0xdf
100012e8:	d1fa      	bne.n	100012e0 <float_table_shim_on_use_helper+0x4>
100012ea:	b2c9      	uxtb	r1, r1
100012ec:	0882      	lsrs	r2, r0, #2
100012ee:	d304      	bcc.n	100012fa <float_table_shim_on_use_helper+0x1e>
100012f0:	8802      	ldrh	r2, [r0, #0]
100012f2:	8840      	ldrh	r0, [r0, #2]
100012f4:	0400      	lsls	r0, r0, #16
100012f6:	4310      	orrs	r0, r2
100012f8:	e000      	b.n	100012fc <float_table_shim_on_use_helper+0x20>
100012fa:	6800      	ldr	r0, [r0, #0]
100012fc:	4a01      	ldr	r2, [pc, #4]	@ (10001304 <float_table_shim_on_use_helper+0x28>)
100012fe:	5050      	str	r0, [r2, r1]
10001300:	9003      	str	r0, [sp, #12]
10001302:	bd07      	pop	{r0, r1, r2, pc}
10001304:	20000468 	.word	0x20000468

10001308 <__aeabi_mem_init>:
10001308:	4801      	ldr	r0, [pc, #4]	@ (10001310 <__aeabi_mem_init+0x8>)
1000130a:	2104      	movs	r1, #4
1000130c:	4b01      	ldr	r3, [pc, #4]	@ (10001314 <__aeabi_mem_init+0xc>)
1000130e:	4718      	bx	r3
10001310:	200001d0 	.word	0x200001d0
10001314:	10000e99 	.word	0x10000e99

10001318 <__wrap___aeabi_memcpy>:
10001318:	4b01      	ldr	r3, [pc, #4]	@ (10001320 <__wrap___aeabi_memcpy+0x8>)
1000131a:	685b      	ldr	r3, [r3, #4]
1000131c:	4718      	bx	r3
1000131e:	0000      	.short	0x0000
10001320:	200001d0 	.word	0x200001d0

10001324 <_out_char>:
10001324:	b510      	push	{r4, lr}
10001326:	2800      	cmp	r0, #0
10001328:	d100      	bne.n	1000132c <_out_char+0x8>
1000132a:	bd10      	pop	{r4, pc}
1000132c:	f000 f914 	bl	10001558 <__wrap_putchar>
10001330:	e7fb      	b.n	1000132a <_out_char+0x6>
10001332:	46c0      	nop			@ (mov r8, r8)

10001334 <weak_raw_vprintf>:
10001334:	b510      	push	{r4, lr}
10001336:	4a09      	ldr	r2, [pc, #36]	@ (1000135c <weak_raw_vprintf+0x28>)
10001338:	0003      	movs	r3, r0
1000133a:	6814      	ldr	r4, [r2, #0]
1000133c:	b084      	sub	sp, #16
1000133e:	2c00      	cmp	r4, #0
10001340:	d008      	beq.n	10001354 <weak_raw_vprintf+0x20>
10001342:	2201      	movs	r2, #1
10001344:	9100      	str	r1, [sp, #0]
10001346:	4806      	ldr	r0, [pc, #24]	@ (10001360 <weak_raw_vprintf+0x2c>)
10001348:	4252      	negs	r2, r2
1000134a:	a903      	add	r1, sp, #12
1000134c:	47a0      	blx	r4
1000134e:	2001      	movs	r0, #1
10001350:	b004      	add	sp, #16
10001352:	bd10      	pop	{r4, pc}
10001354:	f000 f94a 	bl	100015ec <__wrap_puts>
10001358:	2000      	movs	r0, #0
1000135a:	e7f9      	b.n	10001350 <weak_raw_vprintf+0x1c>
1000135c:	2000074c 	.word	0x2000074c
10001360:	10001325 	.word	0x10001325

10001364 <_exit>:
10001364:	be00      	bkpt	0x0000
10001366:	e7fd      	b.n	10001364 <_exit>

10001368 <exit>:
10001368:	b510      	push	{r4, lr}
1000136a:	f7ff fffb 	bl	10001364 <_exit>
1000136e:	46c0      	nop			@ (mov r8, r8)

10001370 <runtime_init>:
10001370:	b570      	push	{r4, r5, r6, lr}
10001372:	f7ff fdcf 	bl	10000f14 <runtime_run_initializers>
10001376:	4d07      	ldr	r5, [pc, #28]	@ (10001394 <runtime_init+0x24>)
10001378:	4e07      	ldr	r6, [pc, #28]	@ (10001398 <runtime_init+0x28>)
1000137a:	42b5      	cmp	r5, r6
1000137c:	d209      	bcs.n	10001392 <runtime_init+0x22>
1000137e:	2400      	movs	r4, #0
10001380:	3e01      	subs	r6, #1
10001382:	1b76      	subs	r6, r6, r5
10001384:	08b6      	lsrs	r6, r6, #2
10001386:	cd08      	ldmia	r5!, {r3}
10001388:	4798      	blx	r3
1000138a:	0023      	movs	r3, r4
1000138c:	3401      	adds	r4, #1
1000138e:	42b3      	cmp	r3, r6
10001390:	d1f9      	bne.n	10001386 <runtime_init+0x16>
10001392:	bd70      	pop	{r4, r5, r6, pc}
10001394:	100017bc 	.word	0x100017bc
10001398:	100017c4 	.word	0x100017c4

1000139c <stdio_out_chars_no_crlf>:
1000139c:	0003      	movs	r3, r0
1000139e:	b510      	push	{r4, lr}
100013a0:	0008      	movs	r0, r1
100013a2:	0011      	movs	r1, r2
100013a4:	681b      	ldr	r3, [r3, #0]
100013a6:	4798      	blx	r3
100013a8:	bd10      	pop	{r4, pc}
100013aa:	46c0      	nop			@ (mov r8, r8)

100013ac <stdio_out_chars_crlf>:
100013ac:	b5f0      	push	{r4, r5, r6, r7, lr}
100013ae:	46c6      	mov	lr, r8
100013b0:	b500      	push	{lr}
100013b2:	7d43      	ldrb	r3, [r0, #21]
100013b4:	0007      	movs	r7, r0
100013b6:	000c      	movs	r4, r1
100013b8:	0016      	movs	r6, r2
100013ba:	2b00      	cmp	r3, #0
100013bc:	d046      	beq.n	1000144c <stdio_out_chars_crlf+0xa0>
100013be:	2a00      	cmp	r2, #0
100013c0:	dd17      	ble.n	100013f2 <stdio_out_chars_crlf+0x46>
100013c2:	780b      	ldrb	r3, [r1, #0]
100013c4:	2b0a      	cmp	r3, #10
100013c6:	d024      	beq.n	10001412 <stdio_out_chars_crlf+0x66>
100013c8:	2300      	movs	r3, #0
100013ca:	4698      	mov	r8, r3
100013cc:	2e01      	cmp	r6, #1
100013ce:	d013      	beq.n	100013f8 <stdio_out_chars_crlf+0x4c>
100013d0:	2501      	movs	r5, #1
100013d2:	0029      	movs	r1, r5
100013d4:	5c63      	ldrb	r3, [r4, r1]
100013d6:	3501      	adds	r5, #1
100013d8:	2b0a      	cmp	r3, #10
100013da:	d026      	beq.n	1000142a <stdio_out_chars_crlf+0x7e>
100013dc:	42b5      	cmp	r5, r6
100013de:	d1f8      	bne.n	100013d2 <stdio_out_chars_crlf+0x26>
100013e0:	4546      	cmp	r6, r8
100013e2:	dc09      	bgt.n	100013f8 <stdio_out_chars_crlf+0x4c>
100013e4:	19a4      	adds	r4, r4, r6
100013e6:	3c01      	subs	r4, #1
100013e8:	7823      	ldrb	r3, [r4, #0]
100013ea:	3b0d      	subs	r3, #13
100013ec:	425a      	negs	r2, r3
100013ee:	4153      	adcs	r3, r2
100013f0:	753b      	strb	r3, [r7, #20]
100013f2:	bc80      	pop	{r7}
100013f4:	46b8      	mov	r8, r7
100013f6:	bdf0      	pop	{r4, r5, r6, r7, pc}
100013f8:	4643      	mov	r3, r8
100013fa:	18e0      	adds	r0, r4, r3
100013fc:	19a4      	adds	r4, r4, r6
100013fe:	1af1      	subs	r1, r6, r3
10001400:	3c01      	subs	r4, #1
10001402:	683b      	ldr	r3, [r7, #0]
10001404:	4798      	blx	r3
10001406:	7823      	ldrb	r3, [r4, #0]
10001408:	3b0d      	subs	r3, #13
1000140a:	425a      	negs	r2, r3
1000140c:	4153      	adcs	r3, r2
1000140e:	753b      	strb	r3, [r7, #20]
10001410:	e7ef      	b.n	100013f2 <stdio_out_chars_crlf+0x46>
10001412:	7d03      	ldrb	r3, [r0, #20]
10001414:	2b00      	cmp	r3, #0
10001416:	d1d7      	bne.n	100013c8 <stdio_out_chars_crlf+0x1c>
10001418:	2102      	movs	r1, #2
1000141a:	480f      	ldr	r0, [pc, #60]	@ (10001458 <stdio_out_chars_crlf+0xac>)
1000141c:	683b      	ldr	r3, [r7, #0]
1000141e:	4798      	blx	r3
10001420:	2e01      	cmp	r6, #1
10001422:	d0df      	beq.n	100013e4 <stdio_out_chars_crlf+0x38>
10001424:	2301      	movs	r3, #1
10001426:	4698      	mov	r8, r3
10001428:	e7d2      	b.n	100013d0 <stdio_out_chars_crlf+0x24>
1000142a:	1e63      	subs	r3, r4, #1
1000142c:	5c5b      	ldrb	r3, [r3, r1]
1000142e:	2b0d      	cmp	r3, #13
10001430:	d0d4      	beq.n	100013dc <stdio_out_chars_crlf+0x30>
10001432:	4588      	cmp	r8, r1
10001434:	da04      	bge.n	10001440 <stdio_out_chars_crlf+0x94>
10001436:	4643      	mov	r3, r8
10001438:	1ac9      	subs	r1, r1, r3
1000143a:	18e0      	adds	r0, r4, r3
1000143c:	683b      	ldr	r3, [r7, #0]
1000143e:	4798      	blx	r3
10001440:	2102      	movs	r1, #2
10001442:	4805      	ldr	r0, [pc, #20]	@ (10001458 <stdio_out_chars_crlf+0xac>)
10001444:	683b      	ldr	r3, [r7, #0]
10001446:	46a8      	mov	r8, r5
10001448:	4798      	blx	r3
1000144a:	e7c7      	b.n	100013dc <stdio_out_chars_crlf+0x30>
1000144c:	6803      	ldr	r3, [r0, #0]
1000144e:	0011      	movs	r1, r2
10001450:	0020      	movs	r0, r4
10001452:	4798      	blx	r3
10001454:	e7cd      	b.n	100013f2 <stdio_out_chars_crlf+0x46>
10001456:	46c0      	nop			@ (mov r8, r8)
10001458:	10001898 	.word	0x10001898

1000145c <stdio_put_string>:
1000145c:	b5f0      	push	{r4, r5, r6, r7, lr}
1000145e:	4645      	mov	r5, r8
10001460:	46de      	mov	lr, fp
10001462:	464e      	mov	r6, r9
10001464:	4657      	mov	r7, sl
10001466:	b5e0      	push	{r5, r6, r7, lr}
10001468:	b083      	sub	sp, #12
1000146a:	4691      	mov	r9, r2
1000146c:	001c      	movs	r4, r3
1000146e:	4680      	mov	r8, r0
10001470:	000d      	movs	r5, r1
10001472:	f7ff fba9 	bl	10000bc8 <time_us_64>
10001476:	2300      	movs	r3, #0
10001478:	4a30      	ldr	r2, [pc, #192]	@ (1000153c <stdio_put_string+0xe0>)
1000147a:	1812      	adds	r2, r2, r0
1000147c:	414b      	adcs	r3, r1
1000147e:	2b00      	cmp	r3, #0
10001480:	da02      	bge.n	10001488 <stdio_put_string+0x2c>
10001482:	2201      	movs	r2, #1
10001484:	4b2e      	ldr	r3, [pc, #184]	@ (10001540 <stdio_put_string+0xe4>)
10001486:	4252      	negs	r2, r2
10001488:	492e      	ldr	r1, [pc, #184]	@ (10001544 <stdio_put_string+0xe8>)
1000148a:	0008      	movs	r0, r1
1000148c:	468a      	mov	sl, r1
1000148e:	f000 f96f 	bl	10001770 <__mutex_try_enter_block_until_veneer>
10001492:	0007      	movs	r7, r0
10001494:	1c6b      	adds	r3, r5, #1
10001496:	d103      	bne.n	100014a0 <stdio_put_string+0x44>
10001498:	4640      	mov	r0, r8
1000149a:	f000 f8c5 	bl	10001628 <strlen>
1000149e:	0005      	movs	r5, r0
100014a0:	2c00      	cmp	r4, #0
100014a2:	d027      	beq.n	100014f4 <stdio_put_string+0x98>
100014a4:	4e28      	ldr	r6, [pc, #160]	@ (10001548 <stdio_put_string+0xec>)
100014a6:	4b29      	ldr	r3, [pc, #164]	@ (1000154c <stdio_put_string+0xf0>)
100014a8:	681c      	ldr	r4, [r3, #0]
100014aa:	2c00      	cmp	r4, #0
100014ac:	d018      	beq.n	100014e0 <stdio_put_string+0x84>
100014ae:	464b      	mov	r3, r9
100014b0:	2b00      	cmp	r3, #0
100014b2:	d121      	bne.n	100014f8 <stdio_put_string+0x9c>
100014b4:	4b26      	ldr	r3, [pc, #152]	@ (10001550 <stdio_put_string+0xf4>)
100014b6:	4699      	mov	r9, r3
100014b8:	e002      	b.n	100014c0 <stdio_put_string+0x64>
100014ba:	6924      	ldr	r4, [r4, #16]
100014bc:	2c00      	cmp	r4, #0
100014be:	d00f      	beq.n	100014e0 <stdio_put_string+0x84>
100014c0:	6823      	ldr	r3, [r4, #0]
100014c2:	2b00      	cmp	r3, #0
100014c4:	d0f9      	beq.n	100014ba <stdio_put_string+0x5e>
100014c6:	464b      	mov	r3, r9
100014c8:	681b      	ldr	r3, [r3, #0]
100014ca:	2b00      	cmp	r3, #0
100014cc:	d001      	beq.n	100014d2 <stdio_put_string+0x76>
100014ce:	429c      	cmp	r4, r3
100014d0:	d1f3      	bne.n	100014ba <stdio_put_string+0x5e>
100014d2:	0020      	movs	r0, r4
100014d4:	002a      	movs	r2, r5
100014d6:	4641      	mov	r1, r8
100014d8:	47b0      	blx	r6
100014da:	6924      	ldr	r4, [r4, #16]
100014dc:	2c00      	cmp	r4, #0
100014de:	d1ef      	bne.n	100014c0 <stdio_put_string+0x64>
100014e0:	2f00      	cmp	r7, #0
100014e2:	d126      	bne.n	10001532 <stdio_put_string+0xd6>
100014e4:	0028      	movs	r0, r5
100014e6:	b003      	add	sp, #12
100014e8:	bcf0      	pop	{r4, r5, r6, r7}
100014ea:	46bb      	mov	fp, r7
100014ec:	46b2      	mov	sl, r6
100014ee:	46a9      	mov	r9, r5
100014f0:	46a0      	mov	r8, r4
100014f2:	bdf0      	pop	{r4, r5, r6, r7, pc}
100014f4:	4e17      	ldr	r6, [pc, #92]	@ (10001554 <stdio_put_string+0xf8>)
100014f6:	e7d6      	b.n	100014a6 <stdio_put_string+0x4a>
100014f8:	4b15      	ldr	r3, [pc, #84]	@ (10001550 <stdio_put_string+0xf4>)
100014fa:	4699      	mov	r9, r3
100014fc:	230a      	movs	r3, #10
100014fe:	469b      	mov	fp, r3
10001500:	e002      	b.n	10001508 <stdio_put_string+0xac>
10001502:	6924      	ldr	r4, [r4, #16]
10001504:	2c00      	cmp	r4, #0
10001506:	d0eb      	beq.n	100014e0 <stdio_put_string+0x84>
10001508:	6823      	ldr	r3, [r4, #0]
1000150a:	2b00      	cmp	r3, #0
1000150c:	d0f9      	beq.n	10001502 <stdio_put_string+0xa6>
1000150e:	464b      	mov	r3, r9
10001510:	681b      	ldr	r3, [r3, #0]
10001512:	2b00      	cmp	r3, #0
10001514:	d001      	beq.n	1000151a <stdio_put_string+0xbe>
10001516:	42a3      	cmp	r3, r4
10001518:	d1f3      	bne.n	10001502 <stdio_put_string+0xa6>
1000151a:	002a      	movs	r2, r5
1000151c:	4641      	mov	r1, r8
1000151e:	0020      	movs	r0, r4
10001520:	47b0      	blx	r6
10001522:	466b      	mov	r3, sp
10001524:	465a      	mov	r2, fp
10001526:	0020      	movs	r0, r4
10001528:	71da      	strb	r2, [r3, #7]
1000152a:	1dd9      	adds	r1, r3, #7
1000152c:	2201      	movs	r2, #1
1000152e:	47b0      	blx	r6
10001530:	e7e7      	b.n	10001502 <stdio_put_string+0xa6>
10001532:	4650      	mov	r0, sl
10001534:	f000 f90c 	bl	10001750 <__mutex_exit_veneer>
10001538:	e7d4      	b.n	100014e4 <stdio_put_string+0x88>
1000153a:	46c0      	nop			@ (mov r8, r8)
1000153c:	000f4240 	.word	0x000f4240
10001540:	7fffffff 	.word	0x7fffffff
10001544:	200001e0 	.word	0x200001e0
10001548:	100013ad 	.word	0x100013ad
1000154c:	20000744 	.word	0x20000744
10001550:	20000748 	.word	0x20000748
10001554:	1000139d 	.word	0x1000139d

10001558 <__wrap_putchar>:
10001558:	b5f0      	push	{r4, r5, r6, r7, lr}
1000155a:	46ce      	mov	lr, r9
1000155c:	4647      	mov	r7, r8
1000155e:	b580      	push	{r7, lr}
10001560:	b083      	sub	sp, #12
10001562:	466b      	mov	r3, sp
10001564:	0006      	movs	r6, r0
10001566:	1ddd      	adds	r5, r3, #7
10001568:	7028      	strb	r0, [r5, #0]
1000156a:	f7ff fb2d 	bl	10000bc8 <time_us_64>
1000156e:	2300      	movs	r3, #0
10001570:	4a19      	ldr	r2, [pc, #100]	@ (100015d8 <__wrap_putchar+0x80>)
10001572:	1812      	adds	r2, r2, r0
10001574:	414b      	adcs	r3, r1
10001576:	2b00      	cmp	r3, #0
10001578:	da02      	bge.n	10001580 <__wrap_putchar+0x28>
1000157a:	2201      	movs	r2, #1
1000157c:	4b17      	ldr	r3, [pc, #92]	@ (100015dc <__wrap_putchar+0x84>)
1000157e:	4252      	negs	r2, r2
10001580:	4917      	ldr	r1, [pc, #92]	@ (100015e0 <__wrap_putchar+0x88>)
10001582:	0008      	movs	r0, r1
10001584:	4688      	mov	r8, r1
10001586:	f000 f8f3 	bl	10001770 <__mutex_try_enter_block_until_veneer>
1000158a:	4b16      	ldr	r3, [pc, #88]	@ (100015e4 <__wrap_putchar+0x8c>)
1000158c:	4681      	mov	r9, r0
1000158e:	681c      	ldr	r4, [r3, #0]
10001590:	2c00      	cmp	r4, #0
10001592:	d014      	beq.n	100015be <__wrap_putchar+0x66>
10001594:	4f14      	ldr	r7, [pc, #80]	@ (100015e8 <__wrap_putchar+0x90>)
10001596:	e002      	b.n	1000159e <__wrap_putchar+0x46>
10001598:	6924      	ldr	r4, [r4, #16]
1000159a:	2c00      	cmp	r4, #0
1000159c:	d00f      	beq.n	100015be <__wrap_putchar+0x66>
1000159e:	6823      	ldr	r3, [r4, #0]
100015a0:	2b00      	cmp	r3, #0
100015a2:	d0f9      	beq.n	10001598 <__wrap_putchar+0x40>
100015a4:	683b      	ldr	r3, [r7, #0]
100015a6:	2b00      	cmp	r3, #0
100015a8:	d001      	beq.n	100015ae <__wrap_putchar+0x56>
100015aa:	429c      	cmp	r4, r3
100015ac:	d1f4      	bne.n	10001598 <__wrap_putchar+0x40>
100015ae:	0020      	movs	r0, r4
100015b0:	2201      	movs	r2, #1
100015b2:	0029      	movs	r1, r5
100015b4:	f7ff fefa 	bl	100013ac <stdio_out_chars_crlf>
100015b8:	6924      	ldr	r4, [r4, #16]
100015ba:	2c00      	cmp	r4, #0
100015bc:	d1ef      	bne.n	1000159e <__wrap_putchar+0x46>
100015be:	464b      	mov	r3, r9
100015c0:	2b00      	cmp	r3, #0
100015c2:	d105      	bne.n	100015d0 <__wrap_putchar+0x78>
100015c4:	0030      	movs	r0, r6
100015c6:	b003      	add	sp, #12
100015c8:	bcc0      	pop	{r6, r7}
100015ca:	46b9      	mov	r9, r7
100015cc:	46b0      	mov	r8, r6
100015ce:	bdf0      	pop	{r4, r5, r6, r7, pc}
100015d0:	4640      	mov	r0, r8
100015d2:	f000 f8bd 	bl	10001750 <__mutex_exit_veneer>
100015d6:	e7f5      	b.n	100015c4 <__wrap_putchar+0x6c>
100015d8:	000f4240 	.word	0x000f4240
100015dc:	7fffffff 	.word	0x7fffffff
100015e0:	200001e0 	.word	0x200001e0
100015e4:	20000744 	.word	0x20000744
100015e8:	20000748 	.word	0x20000748

100015ec <__wrap_puts>:
100015ec:	b570      	push	{r4, r5, r6, lr}
100015ee:	0004      	movs	r4, r0
100015f0:	f000 f81a 	bl	10001628 <strlen>
100015f4:	2301      	movs	r3, #1
100015f6:	0001      	movs	r1, r0
100015f8:	0005      	movs	r5, r0
100015fa:	2201      	movs	r2, #1
100015fc:	0020      	movs	r0, r4
100015fe:	f7ff ff2d 	bl	1000145c <stdio_put_string>
10001602:	4b08      	ldr	r3, [pc, #32]	@ (10001624 <__wrap_puts+0x38>)
10001604:	681c      	ldr	r4, [r3, #0]
10001606:	2c00      	cmp	r4, #0
10001608:	d006      	beq.n	10001618 <__wrap_puts+0x2c>
1000160a:	6863      	ldr	r3, [r4, #4]
1000160c:	2b00      	cmp	r3, #0
1000160e:	d005      	beq.n	1000161c <__wrap_puts+0x30>
10001610:	4798      	blx	r3
10001612:	6924      	ldr	r4, [r4, #16]
10001614:	2c00      	cmp	r4, #0
10001616:	d1f8      	bne.n	1000160a <__wrap_puts+0x1e>
10001618:	0028      	movs	r0, r5
1000161a:	bd70      	pop	{r4, r5, r6, pc}
1000161c:	6924      	ldr	r4, [r4, #16]
1000161e:	2c00      	cmp	r4, #0
10001620:	d1f3      	bne.n	1000160a <__wrap_puts+0x1e>
10001622:	e7f9      	b.n	10001618 <__wrap_puts+0x2c>
10001624:	20000744 	.word	0x20000744

10001628 <strlen>:
10001628:	b510      	push	{r4, lr}
1000162a:	0783      	lsls	r3, r0, #30
1000162c:	d00a      	beq.n	10001644 <strlen+0x1c>
1000162e:	0003      	movs	r3, r0
10001630:	2103      	movs	r1, #3
10001632:	e002      	b.n	1000163a <strlen+0x12>
10001634:	3301      	adds	r3, #1
10001636:	420b      	tst	r3, r1
10001638:	d005      	beq.n	10001646 <strlen+0x1e>
1000163a:	781a      	ldrb	r2, [r3, #0]
1000163c:	2a00      	cmp	r2, #0
1000163e:	d1f9      	bne.n	10001634 <strlen+0xc>
10001640:	1a18      	subs	r0, r3, r0
10001642:	bd10      	pop	{r4, pc}
10001644:	0003      	movs	r3, r0
10001646:	6819      	ldr	r1, [r3, #0]
10001648:	4a0c      	ldr	r2, [pc, #48]	@ (1000167c <strlen+0x54>)
1000164a:	4c0d      	ldr	r4, [pc, #52]	@ (10001680 <strlen+0x58>)
1000164c:	188a      	adds	r2, r1, r2
1000164e:	438a      	bics	r2, r1
10001650:	4222      	tst	r2, r4
10001652:	d10f      	bne.n	10001674 <strlen+0x4c>
10001654:	6859      	ldr	r1, [r3, #4]
10001656:	4a09      	ldr	r2, [pc, #36]	@ (1000167c <strlen+0x54>)
10001658:	3304      	adds	r3, #4
1000165a:	188a      	adds	r2, r1, r2
1000165c:	438a      	bics	r2, r1
1000165e:	4222      	tst	r2, r4
10001660:	d108      	bne.n	10001674 <strlen+0x4c>
10001662:	6859      	ldr	r1, [r3, #4]
10001664:	4a05      	ldr	r2, [pc, #20]	@ (1000167c <strlen+0x54>)
10001666:	3304      	adds	r3, #4
10001668:	188a      	adds	r2, r1, r2
1000166a:	438a      	bics	r2, r1
1000166c:	4222      	tst	r2, r4
1000166e:	d0f1      	beq.n	10001654 <strlen+0x2c>
10001670:	e000      	b.n	10001674 <strlen+0x4c>
10001672:	3301      	adds	r3, #1
10001674:	781a      	ldrb	r2, [r3, #0]
10001676:	2a00      	cmp	r2, #0
10001678:	d1fb      	bne.n	10001672 <strlen+0x4a>
1000167a:	e7e1      	b.n	10001640 <strlen+0x18>
1000167c:	fefefeff 	.word	0xfefefeff
10001680:	80808080 	.word	0x80808080

10001684 <__libc_fini_array>:
10001684:	b570      	push	{r4, r5, r6, lr}
10001686:	4c07      	ldr	r4, [pc, #28]	@ (100016a4 <__libc_fini_array+0x20>)
10001688:	4d07      	ldr	r5, [pc, #28]	@ (100016a8 <__libc_fini_array+0x24>)
1000168a:	1b64      	subs	r4, r4, r5
1000168c:	10a4      	asrs	r4, r4, #2
1000168e:	d005      	beq.n	1000169c <__libc_fini_array+0x18>
10001690:	3c01      	subs	r4, #1
10001692:	00a3      	lsls	r3, r4, #2
10001694:	58eb      	ldr	r3, [r5, r3]
10001696:	4798      	blx	r3
10001698:	2c00      	cmp	r4, #0
1000169a:	d1f9      	bne.n	10001690 <__libc_fini_array+0xc>
1000169c:	f000 f856 	bl	1000174c <_fini>
100016a0:	bd70      	pop	{r4, r5, r6, pc}
100016a2:	46c0      	nop			@ (mov r8, r8)
100016a4:	100017c4 	.word	0x100017c4
100016a8:	100017c4 	.word	0x100017c4

100016ac <atexit>:
100016ac:	b510      	push	{r4, lr}
100016ae:	0001      	movs	r1, r0
100016b0:	2300      	movs	r3, #0
100016b2:	2200      	movs	r2, #0
100016b4:	2000      	movs	r0, #0
100016b6:	f000 f801 	bl	100016bc <__register_exitproc>
100016ba:	bd10      	pop	{r4, pc}

100016bc <__register_exitproc>:
100016bc:	b5f0      	push	{r4, r5, r6, r7, lr}
100016be:	46c6      	mov	lr, r8
100016c0:	4c1a      	ldr	r4, [pc, #104]	@ (1000172c <__register_exitproc+0x70>)
100016c2:	b500      	push	{lr}
100016c4:	6825      	ldr	r5, [r4, #0]
100016c6:	2d00      	cmp	r5, #0
100016c8:	d02a      	beq.n	10001720 <__register_exitproc+0x64>
100016ca:	686c      	ldr	r4, [r5, #4]
100016cc:	2c1f      	cmp	r4, #31
100016ce:	dc2a      	bgt.n	10001726 <__register_exitproc+0x6a>
100016d0:	2800      	cmp	r0, #0
100016d2:	d108      	bne.n	100016e6 <__register_exitproc+0x2a>
100016d4:	2000      	movs	r0, #0
100016d6:	1c63      	adds	r3, r4, #1
100016d8:	3402      	adds	r4, #2
100016da:	00a4      	lsls	r4, r4, #2
100016dc:	606b      	str	r3, [r5, #4]
100016de:	5161      	str	r1, [r4, r5]
100016e0:	bc80      	pop	{r7}
100016e2:	46b8      	mov	r8, r7
100016e4:	bdf0      	pop	{r4, r5, r6, r7, pc}
100016e6:	2788      	movs	r7, #136	@ 0x88
100016e8:	00a6      	lsls	r6, r4, #2
100016ea:	19ae      	adds	r6, r5, r6
100016ec:	51f2      	str	r2, [r6, r7]
100016ee:	3701      	adds	r7, #1
100016f0:	37ff      	adds	r7, #255	@ 0xff
100016f2:	46bc      	mov	ip, r7
100016f4:	2201      	movs	r2, #1
100016f6:	44ac      	add	ip, r5
100016f8:	4667      	mov	r7, ip
100016fa:	40a2      	lsls	r2, r4
100016fc:	683f      	ldr	r7, [r7, #0]
100016fe:	4690      	mov	r8, r2
10001700:	4317      	orrs	r7, r2
10001702:	4662      	mov	r2, ip
10001704:	6017      	str	r7, [r2, #0]
10001706:	2784      	movs	r7, #132	@ 0x84
10001708:	007f      	lsls	r7, r7, #1
1000170a:	51f3      	str	r3, [r6, r7]
1000170c:	2802      	cmp	r0, #2
1000170e:	d1e1      	bne.n	100016d4 <__register_exitproc+0x18>
10001710:	0028      	movs	r0, r5
10001712:	4642      	mov	r2, r8
10001714:	308d      	adds	r0, #141	@ 0x8d
10001716:	30ff      	adds	r0, #255	@ 0xff
10001718:	6803      	ldr	r3, [r0, #0]
1000171a:	4313      	orrs	r3, r2
1000171c:	6003      	str	r3, [r0, #0]
1000171e:	e7d9      	b.n	100016d4 <__register_exitproc+0x18>
10001720:	4d03      	ldr	r5, [pc, #12]	@ (10001730 <__register_exitproc+0x74>)
10001722:	6025      	str	r5, [r4, #0]
10001724:	e7d1      	b.n	100016ca <__register_exitproc+0xe>
10001726:	2001      	movs	r0, #1
10001728:	4240      	negs	r0, r0
1000172a:	e7d9      	b.n	100016e0 <__register_exitproc+0x24>
1000172c:	20000714 	.word	0x20000714
10001730:	20000584 	.word	0x20000584

10001734 <register_fini>:
10001734:	4b03      	ldr	r3, [pc, #12]	@ (10001744 <register_fini+0x10>)
10001736:	b510      	push	{r4, lr}
10001738:	2b00      	cmp	r3, #0
1000173a:	d002      	beq.n	10001742 <register_fini+0xe>
1000173c:	4802      	ldr	r0, [pc, #8]	@ (10001748 <register_fini+0x14>)
1000173e:	f7ff ffb5 	bl	100016ac <atexit>
10001742:	bd10      	pop	{r4, pc}
10001744:	00000000 	.word	0x00000000
10001748:	10001685 	.word	0x10001685

1000174c <_fini>:
1000174c:	b5f8      	push	{r3, r4, r5, r6, r7, lr}
1000174e:	46c0      	nop			@ (mov r8, r8)

10001750 <__mutex_exit_veneer>:
10001750:	b401      	push	{r0}
10001752:	4802      	ldr	r0, [pc, #8]	@ (1000175c <__mutex_exit_veneer+0xc>)
10001754:	4684      	mov	ip, r0
10001756:	bc01      	pop	{r0}
10001758:	4760      	bx	ip
1000175a:	bf00      	nop
1000175c:	20000159 	.word	0x20000159

10001760 <____aeabi_idiv0_veneer>:
10001760:	b401      	push	{r0}
10001762:	4802      	ldr	r0, [pc, #8]	@ (1000176c <____aeabi_idiv0_veneer+0xc>)
10001764:	4684      	mov	ip, r0
10001766:	bc01      	pop	{r0}
10001768:	4760      	bx	ip
1000176a:	bf00      	nop
1000176c:	20000181 	.word	0x20000181

10001770 <__mutex_try_enter_block_until_veneer>:
10001770:	b401      	push	{r0}
10001772:	4802      	ldr	r0, [pc, #8]	@ (1000177c <__mutex_try_enter_block_until_veneer+0xc>)
10001774:	4684      	mov	ip, r0
10001776:	bc01      	pop	{r0}
10001778:	4760      	bx	ip
1000177a:	bf00      	nop
1000177c:	200000c1 	.word	0x200000c1

10001780 <__pre_init_runtime_init_early_resets>:
10001780:	10000f3d                                =...

10001784 <__pre_init_runtime_init_usb_power_down>:
10001784:	10000f69 1000114d 10001309 100011a9     i...M...........
10001794:	10001279                                y...

10001798 <__pre_init_runtime_init_clocks>:
10001798:	10001075                                u...

1000179c <__pre_init_runtime_init_post_clock_resets>:
1000179c:	10000f85                                ....

100017a0 <__pre_init_runtime_init_rp2040_gpio_ie_disable>:
100017a0:	10000fa5                                ....

100017a4 <__pre_init_runtime_init_spin_locks_reset>:
100017a4:	10000fb9                                ....

100017a8 <__pre_init_runtime_init_mutex>:
100017a8:	10000519                                ....

100017ac <__pre_init_runtime_init_install_ram_vector_table>:
100017ac:	10000fc1                                ....

100017b0 <__pre_init_runtime_init_default_alarm_pool>:
100017b0:	10000899                                ....

100017b4 <__pre_init_first_per_core_initializer>:
100017b4:	10000f05                                ....

100017b8 <__pre_init_runtime_init_per_core_irq_priorities>:
100017b8:	1000046d                                m...

100017bc <__init_array_start>:
100017bc:	10001735 	.word	0x10001735

100017c0 <__frame_dummy_init_array_entry>:
100017c0:	100002fd                                ....

Disassembly of section .data:

200000c0 <mutex_try_enter_block_until>:
200000c0:	b5f0      	push	{r4, r5, r6, r7, lr}
200000c2:	46c6      	mov	lr, r8
200000c4:	0015      	movs	r5, r2
200000c6:	b500      	push	{lr}
200000c8:	0004      	movs	r4, r0
200000ca:	001e      	movs	r6, r3
200000cc:	6802      	ldr	r2, [r0, #0]
200000ce:	f3ef 8110 	mrs	r1, PRIMASK
200000d2:	b672      	cpsid	i
200000d4:	6813      	ldr	r3, [r2, #0]
200000d6:	2b00      	cmp	r3, #0
200000d8:	d0fc      	beq.n	200000d4 <mutex_try_enter_block_until+0x14>
200000da:	f3bf 8f5f 	dmb	sy
200000de:	2304      	movs	r3, #4
200000e0:	56e3      	ldrsb	r3, [r4, r3]
200000e2:	6822      	ldr	r2, [r4, #0]
200000e4:	2b00      	cmp	r3, #0
200000e6:	db2b      	blt.n	20000140 <mutex_try_enter_block_until+0x80>
200000e8:	f3bf 8f5f 	dmb	sy
200000ec:	2000      	movs	r0, #0
200000ee:	6010      	str	r0, [r2, #0]
200000f0:	f381 8810 	msr	PRIMASK, r1
200000f4:	22d0      	movs	r2, #208	@ 0xd0
200000f6:	0612      	lsls	r2, r2, #24
200000f8:	7812      	ldrb	r2, [r2, #0]
200000fa:	2700      	movs	r7, #0
200000fc:	b252      	sxtb	r2, r2
200000fe:	4690      	mov	r8, r2
20000100:	429a      	cmp	r2, r3
20000102:	d10e      	bne.n	20000122 <mutex_try_enter_block_until+0x62>
20000104:	2000      	movs	r0, #0
20000106:	bc80      	pop	{r7}
20000108:	46b8      	mov	r8, r7
2000010a:	bdf0      	pop	{r4, r5, r6, r7, pc}
2000010c:	f3bf 8f5f 	dmb	sy
20000110:	6017      	str	r7, [r2, #0]
20000112:	f381 8810 	msr	PRIMASK, r1
20000116:	0028      	movs	r0, r5
20000118:	0031      	movs	r1, r6
2000011a:	f000 f835 	bl	20000188 <__best_effort_wfe_or_timeout_veneer>
2000011e:	2800      	cmp	r0, #0
20000120:	d1f0      	bne.n	20000104 <mutex_try_enter_block_until+0x44>
20000122:	6822      	ldr	r2, [r4, #0]
20000124:	f3ef 8110 	mrs	r1, PRIMASK
20000128:	b672      	cpsid	i
2000012a:	6813      	ldr	r3, [r2, #0]
2000012c:	2b00      	cmp	r3, #0
2000012e:	d0fc      	beq.n	2000012a <mutex_try_enter_block_until+0x6a>
20000130:	f3bf 8f5f 	dmb	sy
20000134:	7923      	ldrb	r3, [r4, #4]
20000136:	6822      	ldr	r2, [r4, #0]
20000138:	2b7f      	cmp	r3, #127	@ 0x7f
2000013a:	d9e7      	bls.n	2000010c <mutex_try_enter_block_until+0x4c>
2000013c:	4643      	mov	r3, r8
2000013e:	e002      	b.n	20000146 <mutex_try_enter_block_until+0x86>
20000140:	23d0      	movs	r3, #208	@ 0xd0
20000142:	061b      	lsls	r3, r3, #24
20000144:	681b      	ldr	r3, [r3, #0]
20000146:	7123      	strb	r3, [r4, #4]
20000148:	f3bf 8f5f 	dmb	sy
2000014c:	2300      	movs	r3, #0
2000014e:	6013      	str	r3, [r2, #0]
20000150:	f381 8810 	msr	PRIMASK, r1
20000154:	2001      	movs	r0, #1
20000156:	e7d6      	b.n	20000106 <mutex_try_enter_block_until+0x46>

20000158 <mutex_exit>:
20000158:	6802      	ldr	r2, [r0, #0]
2000015a:	f3ef 8110 	mrs	r1, PRIMASK
2000015e:	b672      	cpsid	i
20000160:	6813      	ldr	r3, [r2, #0]
20000162:	2b00      	cmp	r3, #0
20000164:	d0fc      	beq.n	20000160 <mutex_exit+0x8>
20000166:	f3bf 8f5f 	dmb	sy
2000016a:	23ff      	movs	r3, #255	@ 0xff
2000016c:	7103      	strb	r3, [r0, #4]
2000016e:	6803      	ldr	r3, [r0, #0]
20000170:	f3bf 8f5f 	dmb	sy
20000174:	2200      	movs	r2, #0
20000176:	601a      	str	r2, [r3, #0]
20000178:	f381 8810 	msr	PRIMASK, r1
2000017c:	bf40      	sev
2000017e:	4770      	bx	lr

20000180 <__aeabi_idiv0>:
20000180:	4770      	bx	lr
20000182:	46c0      	nop			@ (mov r8, r8)
20000184:	0000      	movs	r0, r0
	...

20000188 <__best_effort_wfe_or_timeout_veneer>:
20000188:	b401      	push	{r0}
2000018a:	4802      	ldr	r0, [pc, #8]	@ (20000194 <__best_effort_wfe_or_timeout_veneer+0xc>)
2000018c:	4684      	mov	ip, r0
2000018e:	bc01      	pop	{r0}
20000190:	4760      	bx	ip
20000192:	bf00      	nop
20000194:	10000a99 	.word	0x10000a99

20000198 <striped_spin_lock_num>:
20000198:	00000010                                ....

2000019c <default_alarm_pool>:
	...
200001b0:	200001e8 00000000 00000000 00000000     ... ............

200001c0 <aeabi_bits_funcs>:
200001c0:	00003350 	.word	0x00003350
200001c4:	0000334c 	.word	0x0000334c
200001c8:	00003354 	.word	0x00003354
200001cc:	00003352 	.word	0x00003352

200001d0 <aeabi_bits_funcs_end>:
200001d0:	0000534d 	.word	0x0000534d
200001d4:	0000434d 	.word	0x0000434d
200001d8:	00003453 	.word	0x00003453
200001dc:	00003443 	.word	0x00003443

200001e0 <print_mutex>:
	...
